(lp0
cnumpy.core.multiarray
_reconstruct
p1
(cnumpy
ndarray
p2
(I0
tp3
S'b'
p4
tp5
Rp6
(I1
(tcnumpy
dtype
p7
(S'f8'
p8
I0
I1
tp9
Rp10
(I3
S'<'
p11
NNNI-1
I-1
I0
tp12
bI00
S'\xe1H\xa2A\x02UY\xc0'
p13
tp14
bag1
(g2
(I0
tp15
g4
tp16
Rp17
(I1
(tg10
I00
S'\x1c"\xce\x12\xf1\x84@\xc0'
p18
tp19
bag1
(g2
(I0
tp20
g4
tp21
Rp22
(I1
(tg10
I00
S'\xd7gA\xc7\xda\xe65\xc0'
p23
tp24
bag1
(g2
(I0
tp25
g4
tp26
Rp27
(I1
(tg10
I00
S'\x96\xc1@qx\xc38\xc0'
p28
tp29
bag1
(g2
(I0
tp30
g4
tp31
Rp32
(I1
(tg10
I00
S'\x1fjB\x93\xdf\x107\xc0'
p33
tp34
bag1
(g2
(I0
tp35
g4
tp36
Rp37
(I1
(tg10
I00
S'\x9e\xcdP\x1e\xe7\xdee\xc0'
p38
tp39
bag1
(g2
(I0
tp40
g4
tp41
Rp42
(I1
(tg10
I00
S'\x1e\x9aj\xf0\xde]D\xc0'
p43
tp44
bag1
(g2
(I0
tp45
g4
tp46
Rp47
(I1
(tg10
I00
S'K\xe4\x92\xe5N\xba?\xc0'
p48
tp49
bag1
(g2
(I0
tp50
g4
tp51
Rp52
(I1
(tg10
I00
S'5D\x91\xcf\xef`A\xc0'
p53
tp54
bag1
(g2
(I0
tp55
g4
tp56
Rp57
(I1
(tg10
I00
S'IS]\xff\xcf\x8e6\xc0'
p58
tp59
bag1
(g2
(I0
tp60
g4
tp61
Rp62
(I1
(tg10
I00
S'\xd3)\xf7|zM8\xc0'
p63
tp64
bag1
(g2
(I0
tp65
g4
tp66
Rp67
(I1
(tg10
I00
S'C8\x88\xc1\x8dGF\xc0'
p68
tp69
bag1
(g2
(I0
tp70
g4
tp71
Rp72
(I1
(tg10
I00
S'\x04\x96\x1b\x87\x84\xdeG\xc0'
p73
tp74
bag1
(g2
(I0
tp75
g4
tp76
Rp77
(I1
(tg10
I00
S'\xe7\xda\xdc\xd0\xf2\xd6:\xc0'
p78
tp79
bag1
(g2
(I0
tp80
g4
tp81
Rp82
(I1
(tg10
I00
S'\x83\xe5\xac\x7f\xb9u<\xc0'
p83
tp84
bag1
(g2
(I0
tp85
g4
tp86
Rp87
(I1
(tg10
I00
S'\xd0\xfa\xae1E\x11E\xc0'
p88
tp89
bag1
(g2
(I0
tp90
g4
tp91
Rp92
(I1
(tg10
I00
S'\xcf\xb0\xb9Y\x1a\xbdA\xc0'
p93
tp94
bag1
(g2
(I0
tp95
g4
tp96
Rp97
(I1
(tg10
I00
S'4?o\x8a\xd77C\xc0'
p98
tp99
bag1
(g2
(I0
tp100
g4
tp101
Rp102
(I1
(tg10
I00
S'(\xec\xe4\x17\xbczJ\xc0'
p103
tp104
bag1
(g2
(I0
tp105
g4
tp106
Rp107
(I1
(tg10
I00
S'\xdc\x08\xc6\xd3\xfdXL\xc0'
p108
tp109
bag1
(g2
(I0
tp110
g4
tp111
Rp112
(I1
(tg10
I00
S'\xbdh\xdb\x10%\\H\xc0'
p113
tp114
bag1
(g2
(I0
tp115
g4
tp116
Rp117
(I1
(tg10
I00
S'\x06\xf6/5+qX\xc0'
p118
tp119
bag1
(g2
(I0
tp120
g4
tp121
Rp122
(I1
(tg10
I00
S'7^n\x87\xe0\x926\xc0'
p123
tp124
bag1
(g2
(I0
tp125
g4
tp126
Rp127
(I1
(tg10
I00
S':\xc2\x0f\xd9i\x8fm\xc0'
p128
tp129
bag1
(g2
(I0
tp130
g4
tp131
Rp132
(I1
(tg10
I00
S'7\x15\xc8P\x7f\xf75\xc0'
p133
tp134
bag1
(g2
(I0
tp135
g4
tp136
Rp137
(I1
(tg10
I00
S'\xd4\xa7\x0c\xa0\xc3\xdfB\xc0'
p138
tp139
bag1
(g2
(I0
tp140
g4
tp141
Rp142
(I1
(tg10
I00
S'U\xd6\x18Rd\xc02\xc0'
p143
tp144
bag1
(g2
(I0
tp145
g4
tp146
Rp147
(I1
(tg10
I00
S'\xc18U\x06x\xcfM\xc0'
p148
tp149
bag1
(g2
(I0
tp150
g4
tp151
Rp152
(I1
(tg10
I00
S'-\xcb\xa0\xe4\x94\xf9J\xc0'
p153
tp154
bag1
(g2
(I0
tp155
g4
tp156
Rp157
(I1
(tg10
I00
S'U\t\xf3\xca\xe7\xd6B\xc0'
p158
tp159
bag1
(g2
(I0
tp160
g4
tp161
Rp162
(I1
(tg10
I00
S'm\x94\x94\x92\xab%@\xc0'
p163
tp164
bag1
(g2
(I0
tp165
g4
tp166
Rp167
(I1
(tg10
I00
S'\x9e\x97\x83\x16y\xcaJ\xc0'
p168
tp169
bag1
(g2
(I0
tp170
g4
tp171
Rp172
(I1
(tg10
I00
S'\xbd\xd8\xdb\xc6VfE\xc0'
p173
tp174
bag1
(g2
(I0
tp175
g4
tp176
Rp177
(I1
(tg10
I00
S'\x9f\r\xcfl6\xf5F\xc0'
p178
tp179
bag1
(g2
(I0
tp180
g4
tp181
Rp182
(I1
(tg10
I00
S'\x89*\x19\xb5I\xf4J\xc0'
p183
tp184
bag1
(g2
(I0
tp185
g4
tp186
Rp187
(I1
(tg10
I00
S'V\x89\x11\xbe\xb3\xe6a\xc0'
p188
tp189
bag1
(g2
(I0
tp190
g4
tp191
Rp192
(I1
(tg10
I00
S"p\xf4VAZ\x0c'\xc0"
p193
tp194
bag1
(g2
(I0
tp195
g4
tp196
Rp197
(I1
(tg10
I00
S'D\xea\xf5\x0c\x98\xb6N\xc0'
p198
tp199
bag1
(g2
(I0
tp200
g4
tp201
Rp202
(I1
(tg10
I00
S'\xa8\xb7p\x02\x19\xd0J\xc0'
p203
tp204
bag1
(g2
(I0
tp205
g4
tp206
Rp207
(I1
(tg10
I00
S'\xc0Qk\xa3\xc9\xe3c\xc0'
p208
tp209
bag1
(g2
(I0
tp210
g4
tp211
Rp212
(I1
(tg10
I00
S'\x1d\x9e\x1b\xf4\xc6sP\xc0'
p213
tp214
bag1
(g2
(I0
tp215
g4
tp216
Rp217
(I1
(tg10
I00
S'\xca8\x1c\xd8s\xceb\xc0'
p218
tp219
bag1
(g2
(I0
tp220
g4
tp221
Rp222
(I1
(tg10
I00
S'\xeb1\xacM\xbf\xb2R\xc0'
p223
tp224
bag1
(g2
(I0
tp225
g4
tp226
Rp227
(I1
(tg10
I00
S'@6\x90\xae\x05\x979\xc0'
p228
tp229
bag1
(g2
(I0
tp230
g4
tp231
Rp232
(I1
(tg10
I00
S'\xb6\x81^,\xec\xca?\xc0'
p233
tp234
bag1
(g2
(I0
tp235
g4
tp236
Rp237
(I1
(tg10
I00
S'\xac\xce\x8e\x97\xbd\xa8C\xc0'
p238
tp239
bag1
(g2
(I0
tp240
g4
tp241
Rp242
(I1
(tg10
I00
S'E\xa6\xc6x\xc2\x0cP\xc0'
p243
tp244
bag1
(g2
(I0
tp245
g4
tp246
Rp247
(I1
(tg10
I00
S']\x8d\x88\xb2\xbc#X\xc0'
p248
tp249
bag1
(g2
(I0
tp250
g4
tp251
Rp252
(I1
(tg10
I00
S'\xc2\x12\xc4\tt\xd3N\xc0'
p253
tp254
bag1
(g2
(I0
tp255
g4
tp256
Rp257
(I1
(tg10
I00
S'tSw{|{8\xc0'
p258
tp259
bag1
(g2
(I0
tp260
g4
tp261
Rp262
(I1
(tg10
I00
S'\x9b\xc7v\x84\xa8KG\xc0'
p263
tp264
bag1
(g2
(I0
tp265
g4
tp266
Rp267
(I1
(tg10
I00
S'L70\x93\xe3KC\xc0'
p268
tp269
bag1
(g2
(I0
tp270
g4
tp271
Rp272
(I1
(tg10
I00
S'r\x14y\x05\roS\xc0'
p273
tp274
bag1
(g2
(I0
tp275
g4
tp276
Rp277
(I1
(tg10
I00
S'\x1ame\x18\x12\xa25\xc0'
p278
tp279
bag1
(g2
(I0
tp280
g4
tp281
Rp282
(I1
(tg10
I00
S'\r\xa0\x94\xd1+=-\xc0'
p283
tp284
bag1
(g2
(I0
tp285
g4
tp286
Rp287
(I1
(tg10
I00
S'\xb3\x15=!\x9byW\xc0'
p288
tp289
bag1
(g2
(I0
tp290
g4
tp291
Rp292
(I1
(tg10
I00
S'^\n\xa5\x8f#\xe2P\xc0'
p293
tp294
bag1
(g2
(I0
tp295
g4
tp296
Rp297
(I1
(tg10
I00
S'\xdc\n\xf67\xba\xa3O\xc0'
p298
tp299
bag1
(g2
(I0
tp300
g4
tp301
Rp302
(I1
(tg10
I00
S"\xa6\xb6\xee\rb'G\xc0"
p303
tp304
bag1
(g2
(I0
tp305
g4
tp306
Rp307
(I1
(tg10
I00
S'm\xb6\xda\xa0n\x9e>\xc0'
p308
tp309
bag1
(g2
(I0
tp310
g4
tp311
Rp312
(I1
(tg10
I00
S'5\xb3\xcf\xe5\x1c\xdbF\xc0'
p313
tp314
bag1
(g2
(I0
tp315
g4
tp316
Rp317
(I1
(tg10
I00
S'I\xffb\xcf\xc2M5\xc0'
p318
tp319
bag1
(g2
(I0
tp320
g4
tp321
Rp322
(I1
(tg10
I00
S'\xdbu\xa4\xbax\xeaC\xc0'
p323
tp324
bag1
(g2
(I0
tp325
g4
tp326
Rp327
(I1
(tg10
I00
S'\x03C\x02l4\x06A\xc0'
p328
tp329
bag1
(g2
(I0
tp330
g4
tp331
Rp332
(I1
(tg10
I00
S'\xc0Se+[\x1b.\xc0'
p333
tp334
bag1
(g2
(I0
tp335
g4
tp336
Rp337
(I1
(tg10
I00
S"'\xa7<\x80^2R\xc0"
p338
tp339
bag1
(g2
(I0
tp340
g4
tp341
Rp342
(I1
(tg10
I00
S'\xe0\xc8\x05\x84\xec6F\xc0'
p343
tp344
bag1
(g2
(I0
tp345
g4
tp346
Rp347
(I1
(tg10
I00
S'l\x9fq\xfb\xfd:S\xc0'
p348
tp349
bag1
(g2
(I0
tp350
g4
tp351
Rp352
(I1
(tg10
I00
S'\xfb\x94-Qzt:\xc0'
p353
tp354
bag1
(g2
(I0
tp355
g4
tp356
Rp357
(I1
(tg10
I00
S'\x06B\x99=o\xa79\xc0'
p358
tp359
bag1
(g2
(I0
tp360
g4
tp361
Rp362
(I1
(tg10
I00
S'\xc2b\x8f\xed&<E\xc0'
p363
tp364
bag1
(g2
(I0
tp365
g4
tp366
Rp367
(I1
(tg10
I00
S'u\x19|\x8bR\xb30\xc0'
p368
tp369
bag1
(g2
(I0
tp370
g4
tp371
Rp372
(I1
(tg10
I00
S'Y\x85\xd3\xde1\xc2B\xc0'
p373
tp374
bag1
(g2
(I0
tp375
g4
tp376
Rp377
(I1
(tg10
I00
S'\xf1\xa9q\xd2\x02f2\xc0'
p378
tp379
bag1
(g2
(I0
tp380
g4
tp381
Rp382
(I1
(tg10
I00
S'\xc3\xf5\xa2T\xa0\xb5@\xc0'
p383
tp384
bag1
(g2
(I0
tp385
g4
tp386
Rp387
(I1
(tg10
I00
S'^\xf9^\xb7\x9c*L\xc0'
p388
tp389
bag1
(g2
(I0
tp390
g4
tp391
Rp392
(I1
(tg10
I00
S'hC\x1bJ\x9f=?\xc0'
p393
tp394
bag1
(g2
(I0
tp395
g4
tp396
Rp397
(I1
(tg10
I00
S'l\x82s\xfe\rjC\xc0'
p398
tp399
bag1
(g2
(I0
tp400
g4
tp401
Rp402
(I1
(tg10
I00
S'9=;\xca\x8b\xc7N\xc0'
p403
tp404
bag1
(g2
(I0
tp405
g4
tp406
Rp407
(I1
(tg10
I00
S'\xcc\x86k\x03\xf3\x1b^\xc0'
p408
tp409
bag1
(g2
(I0
tp410
g4
tp411
Rp412
(I1
(tg10
I00
S'\xad\xd9\x13\x14WW?\xc0'
p413
tp414
bag1
(g2
(I0
tp415
g4
tp416
Rp417
(I1
(tg10
I00
S'%\xdd\xdc@\x96\xf5R\xc0'
p418
tp419
bag1
(g2
(I0
tp420
g4
tp421
Rp422
(I1
(tg10
I00
S'\xc13\x12\xc2GxG\xc0'
p423
tp424
bag1
(g2
(I0
tp425
g4
tp426
Rp427
(I1
(tg10
I00
S'\xd0\xda\xee\xf5N\xe8[\xc0'
p428
tp429
bag1
(g2
(I0
tp430
g4
tp431
Rp432
(I1
(tg10
I00
S'\xae\xfd\xce\xd67\xaeP\xc0'
p433
tp434
bag1
(g2
(I0
tp435
g4
tp436
Rp437
(I1
(tg10
I00
S'$O\xef\xbap~H\xc0'
p438
tp439
bag1
(g2
(I0
tp440
g4
tp441
Rp442
(I1
(tg10
I00
S'\x92\xbf\xd7\x01\xc5\xabQ\xc0'
p443
tp444
bag1
(g2
(I0
tp445
g4
tp446
Rp447
(I1
(tg10
I00
S'\r\xda\x82\x8e\xe4\x13C\xc0'
p448
tp449
bag1
(g2
(I0
tp450
g4
tp451
Rp452
(I1
(tg10
I00
S'\xcd\xf6\x01\xa6\x97PW\xc0'
p453
tp454
bag1
(g2
(I0
tp455
g4
tp456
Rp457
(I1
(tg10
I00
S'\xd7\xd1Z\xebi\xedI\xc0'
p458
tp459
bag1
(g2
(I0
tp460
g4
tp461
Rp462
(I1
(tg10
I00
S'\x14\x97\xb1\xd7\x9e&E\xc0'
p463
tp464
bag1
(g2
(I0
tp465
g4
tp466
Rp467
(I1
(tg10
I00
S'p\xb63(\xf8\x05^\xc0'
p468
tp469
bag1
(g2
(I0
tp470
g4
tp471
Rp472
(I1
(tg10
I00
S' \xa4M\x95\xb0\xc68\xc0'
p473
tp474
bag1
(g2
(I0
tp475
g4
tp476
Rp477
(I1
(tg10
I00
S'Xn?\xa7\xd7\xfaF\xc0'
p478
tp479
bag1
(g2
(I0
tp480
g4
tp481
Rp482
(I1
(tg10
I00
S'Y\xfb\xfd\x1bt\x1cA\xc0'
p483
tp484
bag1
(g2
(I0
tp485
g4
tp486
Rp487
(I1
(tg10
I00
S'V\xdc\xa1\xa5_\xf3=\xc0'
p488
tp489
bag1
(g2
(I0
tp490
g4
tp491
Rp492
(I1
(tg10
I00
S"'\xec\xfa\xd2\x94-]\xc0"
p493
tp494
bag1
(g2
(I0
tp495
g4
tp496
Rp497
(I1
(tg10
I00
S'f\x17\x1a\xd4-\xf5B\xc0'
p498
tp499
bag1
(g2
(I0
tp500
g4
tp501
Rp502
(I1
(tg10
I00
S'\xb3\x1cT\x98f\x0bW\xc0'
p503
tp504
bag1
(g2
(I0
tp505
g4
tp506
Rp507
(I1
(tg10
I00
S'\x1eFx\x1dj@I\xc0'
p508
tp509
bag1
(g2
(I0
tp510
g4
tp511
Rp512
(I1
(tg10
I00
S'\x88"\xc5\x1e;\xfaG\xc0'
p513
tp514
bag1
(g2
(I0
tp515
g4
tp516
Rp517
(I1
(tg10
I00
S'7\xdf/\x12[\xb4L\xc0'
p518
tp519
bag1
(g2
(I0
tp520
g4
tp521
Rp522
(I1
(tg10
I00
S'*F\x86\xb0\xf9\x8eT\xc0'
p523
tp524
bag1
(g2
(I0
tp525
g4
tp526
Rp527
(I1
(tg10
I00
S'G\n\xb7\xa1G\x022\xc0'
p528
tp529
bag1
(g2
(I0
tp530
g4
tp531
Rp532
(I1
(tg10
I00
S'@>\xe3\x9e\xeb\xf2.\xc0'
p533
tp534
bag1
(g2
(I0
tp535
g4
tp536
Rp537
(I1
(tg10
I00
S'\xccb\xba\xc2\xed\xb4F\xc0'
p538
tp539
bag1
(g2
(I0
tp540
g4
tp541
Rp542
(I1
(tg10
I00
S'\xf4P\x91\xf8t\xcdH\xc0'
p543
tp544
bag1
(g2
(I0
tp545
g4
tp546
Rp547
(I1
(tg10
I00
S'\xfa\xc2T\x81\x89\xfc[\xc0'
p548
tp549
bag1
(g2
(I0
tp550
g4
tp551
Rp552
(I1
(tg10
I00
S'68\x14\x0f\x110I\xc0'
p553
tp554
bag1
(g2
(I0
tp555
g4
tp556
Rp557
(I1
(tg10
I00
S'\xd5\xc6\xee\xcb\xce\xa8K\xc0'
p558
tp559
bag1
(g2
(I0
tp560
g4
tp561
Rp562
(I1
(tg10
I00
S'%P\x99\xdaR\x12F\xc0'
p563
tp564
bag1
(g2
(I0
tp565
g4
tp566
Rp567
(I1
(tg10
I00
S'\xafo\xc4\xb7\x03n<\xc0'
p568
tp569
bag1
(g2
(I0
tp570
g4
tp571
Rp572
(I1
(tg10
I00
S'bK\x81\x85\x01k,\xc0'
p573
tp574
bag1
(g2
(I0
tp575
g4
tp576
Rp577
(I1
(tg10
I00
S'\xb4\x9fUw\xe3\xb4N\xc0'
p578
tp579
bag1
(g2
(I0
tp580
g4
tp581
Rp582
(I1
(tg10
I00
S'h\x8e4\x07\xb5[Q\xc0'
p583
tp584
bag1
(g2
(I0
tp585
g4
tp586
Rp587
(I1
(tg10
I00
S'\xc2zFGy\r@\xc0'
p588
tp589
bag1
(g2
(I0
tp590
g4
tp591
Rp592
(I1
(tg10
I00
S'\xa7x>\x82w-L\xc0'
p593
tp594
bag1
(g2
(I0
tp595
g4
tp596
Rp597
(I1
(tg10
I00
S'\xa9>\x1d\x0es\x97A\xc0'
p598
tp599
bag1
(g2
(I0
tp600
g4
tp601
Rp602
(I1
(tg10
I00
S'\x92\xb7{\xd4\x15]E\xc0'
p603
tp604
bag1
(g2
(I0
tp605
g4
tp606
Rp607
(I1
(tg10
I00
S'I\x96\xef\x01\x9b\x161\xc0'
p608
tp609
ba.