(lp0
cnumpy.core.multiarray
_reconstruct
p1
(cnumpy
ndarray
p2
(I0
tp3
S'b'
p4
tp5
Rp6
(I1
(tcnumpy
dtype
p7
(S'f8'
p8
I0
I1
tp9
Rp10
(I3
S'<'
p11
NNNI-1
I-1
I0
tp12
bI00
S'\xf8\xaa\xa5\xf6\xc4\xe9_\xc0'
p13
tp14
bag1
(g2
(I0
tp15
g4
tp16
Rp17
(I1
(tg10
I00
S'\x99\x8c\x1b%z\x06<\xc0'
p18
tp19
bag1
(g2
(I0
tp20
g4
tp21
Rp22
(I1
(tg10
I00
S'\xb8!\xa8\x12\t\xf5;\xc0'
p23
tp24
bag1
(g2
(I0
tp25
g4
tp26
Rp27
(I1
(tg10
I00
S'\x96\xcb\xac\xa1\xad\xf4:\xc0'
p28
tp29
bag1
(g2
(I0
tp30
g4
tp31
Rp32
(I1
(tg10
I00
S'\x12\x89o\x14d39\xc0'
p33
tp34
bag1
(g2
(I0
tp35
g4
tp36
Rp37
(I1
(tg10
I00
S'\xe6\xd6Nrh\xace\xc0'
p38
tp39
bag1
(g2
(I0
tp40
g4
tp41
Rp42
(I1
(tg10
I00
S'\xc4\xa6\xe5\xdd&\xe2N\xc0'
p43
tp44
bag1
(g2
(I0
tp45
g4
tp46
Rp47
(I1
(tg10
I00
S']\xe1\xa0\x1e\x02N:\xc0'
p48
tp49
bag1
(g2
(I0
tp50
g4
tp51
Rp52
(I1
(tg10
I00
S'\x86\x14\x9f~\x14hF\xc0'
p53
tp54
bag1
(g2
(I0
tp55
g4
tp56
Rp57
(I1
(tg10
I00
S'\xcb\xe7\xa6\xd8{\xe0:\xc0'
p58
tp59
bag1
(g2
(I0
tp60
g4
tp61
Rp62
(I1
(tg10
I00
S'\xad\xf3Ee\xe7\xe07\xc0'
p63
tp64
bag1
(g2
(I0
tp65
g4
tp66
Rp67
(I1
(tg10
I00
S'#\xad\xdd\x931\x1fH\xc0'
p68
tp69
bag1
(g2
(I0
tp70
g4
tp71
Rp72
(I1
(tg10
I00
S"\xd5=\xd7'-\xc1G\xc0"
p73
tp74
bag1
(g2
(I0
tp75
g4
tp76
Rp77
(I1
(tg10
I00
S'\xe9A\x83\xd7g\xea7\xc0'
p78
tp79
bag1
(g2
(I0
tp80
g4
tp81
Rp82
(I1
(tg10
I00
S'WM\xbf1\xa2\xae@\xc0'
p83
tp84
bag1
(g2
(I0
tp85
g4
tp86
Rp87
(I1
(tg10
I00
S'i@I\x11\xd1\x18J\xc0'
p88
tp89
bag1
(g2
(I0
tp90
g4
tp91
Rp92
(I1
(tg10
I00
S't\xa9\xdeN\xe2=;\xc0'
p93
tp94
bag1
(g2
(I0
tp95
g4
tp96
Rp97
(I1
(tg10
I00
S'\x83\x1f\xf4/\x92\x05I\xc0'
p98
tp99
bag1
(g2
(I0
tp100
g4
tp101
Rp102
(I1
(tg10
I00
S"^\xd7~I\xa7'[\xc0"
p103
tp104
bag1
(g2
(I0
tp105
g4
tp106
Rp107
(I1
(tg10
I00
S'\xce\xf2\xb6\x8fPLK\xc0'
p108
tp109
bag1
(g2
(I0
tp110
g4
tp111
Rp112
(I1
(tg10
I00
S'\xf2\x9c\xd6\xdb\x9b\xa4F\xc0'
p113
tp114
bag1
(g2
(I0
tp115
g4
tp116
Rp117
(I1
(tg10
I00
S'\r\xba\x93\x9e\x97VX\xc0'
p118
tp119
bag1
(g2
(I0
tp120
g4
tp121
Rp122
(I1
(tg10
I00
S'\xe9.\x914\xac\xca3\xc0'
p123
tp124
bag1
(g2
(I0
tp125
g4
tp126
Rp127
(I1
(tg10
I00
S'2/\x010\x81\xbbW\xc0'
p128
tp129
bag1
(g2
(I0
tp130
g4
tp131
Rp132
(I1
(tg10
I00
S'\xb37\xee\xa8\xbap4\xc0'
p133
tp134
bag1
(g2
(I0
tp135
g4
tp136
Rp137
(I1
(tg10
I00
S'[N\x869\x06Q?\xc0'
p138
tp139
bag1
(g2
(I0
tp140
g4
tp141
Rp142
(I1
(tg10
I00
S'\xc8\x01Zff\r3\xc0'
p143
tp144
bag1
(g2
(I0
tp145
g4
tp146
Rp147
(I1
(tg10
I00
S'p\xb7$\xccM\xd7I\xc0'
p148
tp149
bag1
(g2
(I0
tp150
g4
tp151
Rp152
(I1
(tg10
I00
S'\xe7hh\x97\xe5NI\xc0'
p153
tp154
ba.