(lp0
cnumpy.core.multiarray
_reconstruct
p1
(cnumpy
ndarray
p2
(I0
tp3
S'b'
p4
tp5
Rp6
(I1
(tcnumpy
dtype
p7
(S'f8'
p8
I0
I1
tp9
Rp10
(I3
S'<'
p11
NNNI-1
I-1
I0
tp12
bI00
S'\xd5\xf7\x04V\x96\xd8B\xc0'
p13
tp14
bag1
(g2
(I0
tp15
g4
tp16
Rp17
(I1
(tg10
I00
S'\xcb\x0c0\xd83\xcbR\xc0'
p18
tp19
bag1
(g2
(I0
tp20
g4
tp21
Rp22
(I1
(tg10
I00
S'\xe4\xb2\x8bL/\xcfb\xc0'
p23
tp24
bag1
(g2
(I0
tp25
g4
tp26
Rp27
(I1
(tg10
I00
S'\x0bE\x98\x99\xc5VT\xc0'
p28
tp29
bag1
(g2
(I0
tp30
g4
tp31
Rp32
(I1
(tg10
I00
S'\x94"{\x8f\xaa\x92Y\xc0'
p33
tp34
bag1
(g2
(I0
tp35
g4
tp36
Rp37
(I1
(tg10
I00
S'\xd6\x8d\xd8mr\xa2A\xc0'
p38
tp39
bag1
(g2
(I0
tp40
g4
tp41
Rp42
(I1
(tg10
I00
S'\xa8\xa8@O\x90\x83V\xc0'
p43
tp44
bag1
(g2
(I0
tp45
g4
tp46
Rp47
(I1
(tg10
I00
S'\x7f\x03y\xf5\x97\x16M\xc0'
p48
tp49
bag1
(g2
(I0
tp50
g4
tp51
Rp52
(I1
(tg10
I00
S'\xd3V\xe8\x1fi\xc1H\xc0'
p53
tp54
bag1
(g2
(I0
tp55
g4
tp56
Rp57
(I1
(tg10
I00
S'\xb7j<\nR\x0f\\\xc0'
p58
tp59
bag1
(g2
(I0
tp60
g4
tp61
Rp62
(I1
(tg10
I00
S'\x04\x85\xbf2\xba\xaf[\xc0'
p63
tp64
bag1
(g2
(I0
tp65
g4
tp66
Rp67
(I1
(tg10
I00
S'n\x1d\x9b\x9e|&J\xc0'
p68
tp69
bag1
(g2
(I0
tp70
g4
tp71
Rp72
(I1
(tg10
I00
S'\xe0w\x06][8R\xc0'
p73
tp74
bag1
(g2
(I0
tp75
g4
tp76
Rp77
(I1
(tg10
I00
S'\x9d&M\xaa\xfd\x98e\xc0'
p78
tp79
bag1
(g2
(I0
tp80
g4
tp81
Rp82
(I1
(tg10
I00
S'\x0f\xb1\xc6|\xf4\xeeP\xc0'
p83
tp84
bag1
(g2
(I0
tp85
g4
tp86
Rp87
(I1
(tg10
I00
S"'\xd6i\xcbl\xc7e\xc0"
p88
tp89
bag1
(g2
(I0
tp90
g4
tp91
Rp92
(I1
(tg10
I00
S'\x13\xab\x8b,\xc1\x80Y\xc0'
p93
tp94
bag1
(g2
(I0
tp95
g4
tp96
Rp97
(I1
(tg10
I00
S'|\xa3C#\xb5\xc9e\xc0'
p98
tp99
bag1
(g2
(I0
tp100
g4
tp101
Rp102
(I1
(tg10
I00
S'\x0f:\x8c\x06\x17\xb8_\xc0'
p103
tp104
bag1
(g2
(I0
tp105
g4
tp106
Rp107
(I1
(tg10
I00
S'\xaf\xfePM}wl\xc0'
p108
tp109
bag1
(g2
(I0
tp110
g4
tp111
Rp112
(I1
(tg10
I00
S'\x06\xda\xfe\x93D\x15J\xc0'
p113
tp114
bag1
(g2
(I0
tp115
g4
tp116
Rp117
(I1
(tg10
I00
S'T]y\xf5\xda\x17\x80\xc0'
p118
tp119
bag1
(g2
(I0
tp120
g4
tp121
Rp122
(I1
(tg10
I00
S'\x8cA\xccL\xca\x86H\xc0'
p123
tp124
bag1
(g2
(I0
tp125
g4
tp126
Rp127
(I1
(tg10
I00
S'\t\xc4\t\x1e\x1f\xaaR\xc0'
p128
tp129
bag1
(g2
(I0
tp130
g4
tp131
Rp132
(I1
(tg10
I00
S'"E\x8a\xf1\xf4LG\xc0'
p133
tp134
bag1
(g2
(I0
tp135
g4
tp136
Rp137
(I1
(tg10
I00
S'lE*\xfb\xe1\xa4`\xc0'
p138
tp139
bag1
(g2
(I0
tp140
g4
tp141
Rp142
(I1
(tg10
I00
S'\xe1I\xcaWB<c\xc0'
p143
tp144
bag1
(g2
(I0
tp145
g4
tp146
Rp147
(I1
(tg10
I00
S'\xcc\xc02\x91\xe0bZ\xc0'
p148
tp149
bag1
(g2
(I0
tp150
g4
tp151
Rp152
(I1
(tg10
I00
S'Q\xb9\x81\xe5\x7f\xa9V\xc0'
p153
tp154
bag1
(g2
(I0
tp155
g4
tp156
Rp157
(I1
(tg10
I00
S'\xe8\n\x98\x91U\xf8a\xc0'
p158
tp159
bag1
(g2
(I0
tp160
g4
tp161
Rp162
(I1
(tg10
I00
S'\x96w\xedVv\xf8T\xc0'
p163
tp164
bag1
(g2
(I0
tp165
g4
tp166
Rp167
(I1
(tg10
I00
S'\xb2\xbd\xac\xff\xf0\xd9X\xc0'
p168
tp169
bag1
(g2
(I0
tp170
g4
tp171
Rp172
(I1
(tg10
I00
S'z\xd8\x8a\xcf\xc0\x83\\\xc0'
p173
tp174
bag1
(g2
(I0
tp175
g4
tp176
Rp177
(I1
(tg10
I00
S"H\x80\xfb.'Lp\xc0"
p178
tp179
bag1
(g2
(I0
tp180
g4
tp181
Rp182
(I1
(tg10
I00
S'\xa0XvNC\xdb3\xc0'
p183
tp184
bag1
(g2
(I0
tp185
g4
tp186
Rp187
(I1
(tg10
I00
S'\xb5\xb9\x95j\xcf\xd4k\xc0'
p188
tp189
bag1
(g2
(I0
tp190
g4
tp191
Rp192
(I1
(tg10
I00
S'\x9ag\xcc\xd7D\xbc\\\xc0'
p193
tp194
bag1
(g2
(I0
tp195
g4
tp196
Rp197
(I1
(tg10
I00
S'x;\xae2\xb6Ls\xc0'
p198
tp199
bag1
(g2
(I0
tp200
g4
tp201
Rp202
(I1
(tg10
I00
S'\x0e\xce\xce\x80\x8b\xa0e\xc0'
p203
tp204
bag1
(g2
(I0
tp205
g4
tp206
Rp207
(I1
(tg10
I00
S'ZU\xcc\x82\x06\x00\\\xc0'
p208
tp209
bag1
(g2
(I0
tp210
g4
tp211
Rp212
(I1
(tg10
I00
S'<\x82\x00\x1a\n\x9eh\xc0'
p213
tp214
bag1
(g2
(I0
tp215
g4
tp216
Rp217
(I1
(tg10
I00
S'fK\x01\x17A\xeab\xc0'
p218
tp219
bag1
(g2
(I0
tp220
g4
tp221
Rp222
(I1
(tg10
I00
S'$b\x8b+\xa1oT\xc0'
p223
tp224
bag1
(g2
(I0
tp225
g4
tp226
Rp227
(I1
(tg10
I00
S'\xe9!\x80\xb6U\xafS\xc0'
p228
tp229
bag1
(g2
(I0
tp230
g4
tp231
Rp232
(I1
(tg10
I00
S'\xf0\xe6\xe1\xe7\xe4\x16S\xc0'
p233
tp234
bag1
(g2
(I0
tp235
g4
tp236
Rp237
(I1
(tg10
I00
S'\xf3\xdf\x1d\x12r7d\xc0'
p238
tp239
bag1
(g2
(I0
tp240
g4
tp241
Rp242
(I1
(tg10
I00
S'\xb1\x94\x91O}hZ\xc0'
p243
tp244
bag1
(g2
(I0
tp245
g4
tp246
Rp247
(I1
(tg10
I00
S'o\x9d\xb7h,\xa2[\xc0'
p248
tp249
bag1
(g2
(I0
tp250
g4
tp251
Rp252
(I1
(tg10
I00
S"\xf6G\xfb\x92'\x8b\\\xc0"
p253
tp254
bag1
(g2
(I0
tp255
g4
tp256
Rp257
(I1
(tg10
I00
S'\xcdU\xf2\x07\xc8\xc7P\xc0'
p258
tp259
bag1
(g2
(I0
tp260
g4
tp261
Rp262
(I1
(tg10
I00
S'\x8d\x91\x13\x16\xfa\x9dj\xc0'
p263
tp264
bag1
(g2
(I0
tp265
g4
tp266
Rp267
(I1
(tg10
I00
S'\x8b\r\xfa\xa7\xf7\x92X\xc0'
p268
tp269
bag1
(g2
(I0
tp270
g4
tp271
Rp272
(I1
(tg10
I00
S'vs\x1d\xd3\xbd3a\xc0'
p273
tp274
bag1
(g2
(I0
tp275
g4
tp276
Rp277
(I1
(tg10
I00
S'h\x89\x05\xfaApe\xc0'
p278
tp279
bag1
(g2
(I0
tp280
g4
tp281
Rp282
(I1
(tg10
I00
S'\x9fr \x17.\x02R\xc0'
p283
tp284
bag1
(g2
(I0
tp285
g4
tp286
Rp287
(I1
(tg10
I00
S'm\xa4>\x7fh\xbbP\xc0'
p288
tp289
bag1
(g2
(I0
tp290
g4
tp291
Rp292
(I1
(tg10
I00
S'c\xd3\xea$@vY\xc0'
p293
tp294
bag1
(g2
(I0
tp295
g4
tp296
Rp297
(I1
(tg10
I00
S'`\x18\xfdp\xc7tP\xc0'
p298
tp299
bag1
(g2
(I0
tp300
g4
tp301
Rp302
(I1
(tg10
I00
S'\xa3\x0b:\xa0\xe0\xf0R\xc0'
p303
tp304
bag1
(g2
(I0
tp305
g4
tp306
Rp307
(I1
(tg10
I00
S'\xab\x9c\x99J\xab\xfaG\xc0'
p308
tp309
bag1
(g2
(I0
tp310
g4
tp311
Rp312
(I1
(tg10
I00
S'\xec\x15\xb4\x98\xa2\x0c7\xc0'
p313
tp314
bag1
(g2
(I0
tp315
g4
tp316
Rp317
(I1
(tg10
I00
S'\x07\xa3\x95\xd4\x16\x16`\xc0'
p318
tp319
bag1
(g2
(I0
tp320
g4
tp321
Rp322
(I1
(tg10
I00
S'\xd4\xd0@wP\xdcQ\xc0'
p323
tp324
bag1
(g2
(I0
tp325
g4
tp326
Rp327
(I1
(tg10
I00
S'\x00\xf8\xcbsu\x06b\xc0'
p328
tp329
bag1
(g2
(I0
tp330
g4
tp331
Rp332
(I1
(tg10
I00
S'\x8e\x15\x8b\xde\x97\xd2P\xc0'
p333
tp334
bag1
(g2
(I0
tp335
g4
tp336
Rp337
(I1
(tg10
I00
S'\x8b|\xea\xf2\xa1\x8eL\xc0'
p338
tp339
bag1
(g2
(I0
tp340
g4
tp341
Rp342
(I1
(tg10
I00
S'\xd9$D\xd7\x10\xa7T\xc0'
p343
tp344
bag1
(g2
(I0
tp345
g4
tp346
Rp347
(I1
(tg10
I00
S'\xf7\n-\xf7\xdc\xd9B\xc0'
p348
tp349
bag1
(g2
(I0
tp350
g4
tp351
Rp352
(I1
(tg10
I00
S'q\x9d\x89c\x91\xe8S\xc0'
p353
tp354
bag1
(g2
(I0
tp355
g4
tp356
Rp357
(I1
(tg10
I00
S'\x97\xf2\x94gz\xecN\xc0'
p358
tp359
bag1
(g2
(I0
tp360
g4
tp361
Rp362
(I1
(tg10
I00
S'\xdcY\xf4=\xaa/Z\xc0'
p363
tp364
bag1
(g2
(I0
tp365
g4
tp366
Rp367
(I1
(tg10
I00
S'T\x8e8\xa2\xf5K`\xc0'
p368
tp369
bag1
(g2
(I0
tp370
g4
tp371
Rp372
(I1
(tg10
I00
S'\x0b\xb9\xfa\xc4\x1a\x16T\xc0'
p373
tp374
bag1
(g2
(I0
tp375
g4
tp376
Rp377
(I1
(tg10
I00
S'Z\x89\xad\x99\xabyU\xc0'
p378
tp379
bag1
(g2
(I0
tp380
g4
tp381
Rp382
(I1
(tg10
I00
S'V\xb1\xc2\x1291q\xc0'
p383
tp384
bag1
(g2
(I0
tp385
g4
tp386
Rp387
(I1
(tg10
I00
S'\xba\x05;\xe2\x9bkl\xc0'
p388
tp389
bag1
(g2
(I0
tp390
g4
tp391
Rp392
(I1
(tg10
I00
S'\t~\x11\x93\xd2\x80S\xc0'
p393
tp394
bag1
(g2
(I0
tp395
g4
tp396
Rp397
(I1
(tg10
I00
S'l~\xb7E\xcf\x9da\xc0'
p398
tp399
bag1
(g2
(I0
tp400
g4
tp401
Rp402
(I1
(tg10
I00
S'\x98JU\xe5)2d\xc0'
p403
tp404
bag1
(g2
(I0
tp405
g4
tp406
Rp407
(I1
(tg10
I00
S'x\x02p\xfa\x16Jv\xc0'
p408
tp409
bag1
(g2
(I0
tp410
g4
tp411
Rp412
(I1
(tg10
I00
S'\x91\xc6.\x91\xb0\xa9a\xc0'
p413
tp414
bag1
(g2
(I0
tp415
g4
tp416
Rp417
(I1
(tg10
I00
S'|\xc6\x92C-\xfeW\xc0'
p418
tp419
bag1
(g2
(I0
tp420
g4
tp421
Rp422
(I1
(tg10
I00
S'\xca\r\x92!"2e\xc0'
p423
tp424
bag1
(g2
(I0
tp425
g4
tp426
Rp427
(I1
(tg10
I00
S'\xd2\x90\x8122\x14R\xc0'
p428
tp429
bag1
(g2
(I0
tp430
g4
tp431
Rp432
(I1
(tg10
I00
S'lK\xf0\x82\xc1\xe0o\xc0'
p433
tp434
bag1
(g2
(I0
tp435
g4
tp436
Rp437
(I1
(tg10
I00
S'\x00\xafc\x16\xf8\xe7`\xc0'
p438
tp439
bag1
(g2
(I0
tp440
g4
tp441
Rp442
(I1
(tg10
I00
S'\r\xec\x8b\xe9K\xbfe\xc0'
p443
tp444
bag1
(g2
(I0
tp445
g4
tp446
Rp447
(I1
(tg10
I00
S'\xcd\xbaT-\x82\x91j\xc0'
p448
tp449
bag1
(g2
(I0
tp450
g4
tp451
Rp452
(I1
(tg10
I00
S'\x86\n\xb4\xfb\x16-G\xc0'
p453
tp454
bag1
(g2
(I0
tp455
g4
tp456
Rp457
(I1
(tg10
I00
S'`\xa3cd1\x92_\xc0'
p458
tp459
bag1
(g2
(I0
tp460
g4
tp461
Rp462
(I1
(tg10
I00
S'g\xb3\x8fh\xbd\xa3T\xc0'
p463
tp464
bag1
(g2
(I0
tp465
g4
tp466
Rp467
(I1
(tg10
I00
S'\xfe\xe9\x04\x07L\xb2I\xc0'
p468
tp469
bag1
(g2
(I0
tp470
g4
tp471
Rp472
(I1
(tg10
I00
S'\x9a\xf8\x01\xbf\xc8Ph\xc0'
p473
tp474
bag1
(g2
(I0
tp475
g4
tp476
Rp477
(I1
(tg10
I00
S'n[\x0e\xd21\xe1_\xc0'
p478
tp479
bag1
(g2
(I0
tp480
g4
tp481
Rp482
(I1
(tg10
I00
S'\xc4\xb5\xac<\xd4\x9fY\xc0'
p483
tp484
bag1
(g2
(I0
tp485
g4
tp486
Rp487
(I1
(tg10
I00
S'\x1dg1\x05Z\xf5o\xc0'
p488
tp489
bag1
(g2
(I0
tp490
g4
tp491
Rp492
(I1
(tg10
I00
S'R\xe7\\K qi\xc0'
p493
tp494
bag1
(g2
(I0
tp495
g4
tp496
Rp497
(I1
(tg10
I00
S'\xbb\x0f\xa4:\x9c\x13b\xc0'
p498
tp499
bag1
(g2
(I0
tp500
g4
tp501
Rp502
(I1
(tg10
I00
S'CFfh^N[\xc0'
p503
tp504
bag1
(g2
(I0
tp505
g4
tp506
Rp507
(I1
(tg10
I00
S"49+'7\xccT\xc0"
p508
tp509
bag1
(g2
(I0
tp510
g4
tp511
Rp512
(I1
(tg10
I00
S'\xf8\xd0|M!\x00_\xc0'
p513
tp514
bag1
(g2
(I0
tp515
g4
tp516
Rp517
(I1
(tg10
I00
S'\x12\xd60}\x97>?\xc0'
p518
tp519
bag1
(g2
(I0
tp520
g4
tp521
Rp522
(I1
(tg10
I00
S'\xd2\xbf`\x84v\xf8d\xc0'
p523
tp524
bag1
(g2
(I0
tp525
g4
tp526
Rp527
(I1
(tg10
I00
S'\xfe\xbd\x06R\xcb\xed:\xc0'
p528
tp529
bag1
(g2
(I0
tp530
g4
tp531
Rp532
(I1
(tg10
I00
S'L\x16\t\x9a\xdc\xe4P\xc0'
p533
tp534
bag1
(g2
(I0
tp535
g4
tp536
Rp537
(I1
(tg10
I00
S'\xc3\xc2\x99\x16L\xb6R\xc0'
p538
tp539
bag1
(g2
(I0
tp540
g4
tp541
Rp542
(I1
(tg10
I00
S'\x7f*O\xdb\xa2e]\xc0'
p543
tp544
bag1
(g2
(I0
tp545
g4
tp546
Rp547
(I1
(tg10
I00
S'\xcf\rJ\x0f\x91\xc3\\\xc0'
p548
tp549
bag1
(g2
(I0
tp550
g4
tp551
Rp552
(I1
(tg10
I00
S'\x8e,\tP\x92\xe3N\xc0'
p553
tp554
bag1
(g2
(I0
tp555
g4
tp556
Rp557
(I1
(tg10
I00
S'.\xb2\xa3\x1bM\xb46\xc0'
p558
tp559
bag1
(g2
(I0
tp560
g4
tp561
Rp562
(I1
(tg10
I00
S'\xe6\x08\xd5\x05v\xc2R\xc0'
p563
tp564
bag1
(g2
(I0
tp565
g4
tp566
Rp567
(I1
(tg10
I00
S'F\xf1\xcf\x9b\xa1\xf2^\xc0'
p568
tp569
bag1
(g2
(I0
tp570
g4
tp571
Rp572
(I1
(tg10
I00
S'\xaeM\xae\xeaS|N\xc0'
p573
tp574
bag1
(g2
(I0
tp575
g4
tp576
Rp577
(I1
(tg10
I00
S"Tw\x90\x88W'Z\xc0"
p578
tp579
bag1
(g2
(I0
tp580
g4
tp581
Rp582
(I1
(tg10
I00
S'\xcb\x14x^\xdb\x9f>\xc0'
p583
tp584
bag1
(g2
(I0
tp585
g4
tp586
Rp587
(I1
(tg10
I00
S'?\xba\xb9\x95\x06FW\xc0'
p588
tp589
bag1
(g2
(I0
tp590
g4
tp591
Rp592
(I1
(tg10
I00
S'\x0fT\xc1X?;_\xc0'
p593
tp594
bag1
(g2
(I0
tp595
g4
tp596
Rp597
(I1
(tg10
I00
S't\xd6\x8a\x1a\xcb\xbcf\xc0'
p598
tp599
bag1
(g2
(I0
tp600
g4
tp601
Rp602
(I1
(tg10
I00
S'?\xf2\xd9\x1bMuf\xc0'
p603
tp604
bag1
(g2
(I0
tp605
g4
tp606
Rp607
(I1
(tg10
I00
S'\xfc\xd5?\x97r\xb1M\xc0'
p608
tp609
bag1
(g2
(I0
tp610
g4
tp611
Rp612
(I1
(tg10
I00
S'Dq\x88J\xd5b\\\xc0'
p613
tp614
bag1
(g2
(I0
tp615
g4
tp616
Rp617
(I1
(tg10
I00
S'\xa4\x1a\xb7\x08\x12\xc0@\xc0'
p618
tp619
bag1
(g2
(I0
tp620
g4
tp621
Rp622
(I1
(tg10
I00
S'd0L\x81\xd1\xa98\xc0'
p623
tp624
bag1
(g2
(I0
tp625
g4
tp626
Rp627
(I1
(tg10
I00
S'\xf1\xeb\xeb\x8d\xac\xc5X\xc0'
p628
tp629
bag1
(g2
(I0
tp630
g4
tp631
Rp632
(I1
(tg10
I00
S'\xb3\xb0.k\xe5\x9fN\xc0'
p633
tp634
bag1
(g2
(I0
tp635
g4
tp636
Rp637
(I1
(tg10
I00
S'\x08`\xefU\xefa\\\xc0'
p638
tp639
bag1
(g2
(I0
tp640
g4
tp641
Rp642
(I1
(tg10
I00
S'\xbfX\x07\x9d\xa6\x83e\xc0'
p643
tp644
bag1
(g2
(I0
tp645
g4
tp646
Rp647
(I1
(tg10
I00
S'\xc4\xe7\xc8Q\xb6\xf7W\xc0'
p648
tp649
bag1
(g2
(I0
tp650
g4
tp651
Rp652
(I1
(tg10
I00
S'U\xd0\x8b\xeb\xc3\x96g\xc0'
p653
tp654
bag1
(g2
(I0
tp655
g4
tp656
Rp657
(I1
(tg10
I00
S'\xbb\xce\xee\x89#\xb64\xc0'
p658
tp659
bag1
(g2
(I0
tp660
g4
tp661
Rp662
(I1
(tg10
I00
S'\xe0Z[OI\x1e[\xc0'
p663
tp664
bag1
(g2
(I0
tp665
g4
tp666
Rp667
(I1
(tg10
I00
S'\x05I8l\x97\xa7B\xc0'
p668
tp669
bag1
(g2
(I0
tp670
g4
tp671
Rp672
(I1
(tg10
I00
S"UC\x1f'\x11\x89a\xc0"
p673
tp674
bag1
(g2
(I0
tp675
g4
tp676
Rp677
(I1
(tg10
I00
S'h\xfc\xd0.7\x94=\xc0'
p678
tp679
bag1
(g2
(I0
tp680
g4
tp681
Rp682
(I1
(tg10
I00
S'\x06S\x8eK\xd9\x11E\xc0'
p683
tp684
bag1
(g2
(I0
tp685
g4
tp686
Rp687
(I1
(tg10
I00
S'"\x1f\xdf\x9b\x1a\xc8`\xc0'
p688
tp689
bag1
(g2
(I0
tp690
g4
tp691
Rp692
(I1
(tg10
I00
S'\xbaZB-\x1e\x8cL\xc0'
p693
tp694
bag1
(g2
(I0
tp695
g4
tp696
Rp697
(I1
(tg10
I00
S'\xea\x9cn\xf9\xa3\xeah\xc0'
p698
tp699
bag1
(g2
(I0
tp700
g4
tp701
Rp702
(I1
(tg10
I00
S'\xb3\xa6C\x91Z\xac_\xc0'
p703
tp704
bag1
(g2
(I0
tp705
g4
tp706
Rp707
(I1
(tg10
I00
S'7Ke\xebR\xdbH\xc0'
p708
tp709
bag1
(g2
(I0
tp710
g4
tp711
Rp712
(I1
(tg10
I00
S'_\xdf\xf2\n@\x80O\xc0'
p713
tp714
bag1
(g2
(I0
tp715
g4
tp716
Rp717
(I1
(tg10
I00
S'\x1a\xd2\xb5\xe3\x15\xe7[\xc0'
p718
tp719
bag1
(g2
(I0
tp720
g4
tp721
Rp722
(I1
(tg10
I00
S'\xb5*a\xaf\xca\xf0O\xc0'
p723
tp724
bag1
(g2
(I0
tp725
g4
tp726
Rp727
(I1
(tg10
I00
S'^\xb1\xb9\xce\x12\xfaF\xc0'
p728
tp729
bag1
(g2
(I0
tp730
g4
tp731
Rp732
(I1
(tg10
I00
S'\x9f\xa5\xccz\xc9wX\xc0'
p733
tp734
bag1
(g2
(I0
tp735
g4
tp736
Rp737
(I1
(tg10
I00
S'\xc8Z\xa1bo\x11H\xc0'
p738
tp739
bag1
(g2
(I0
tp740
g4
tp741
Rp742
(I1
(tg10
I00
S'\x1dR\xbd5\x89\x10X\xc0'
p743
tp744
bag1
(g2
(I0
tp745
g4
tp746
Rp747
(I1
(tg10
I00
S'\xa0\x85Q\xa8\xa5HC\xc0'
p748
tp749
bag1
(g2
(I0
tp750
g4
tp751
Rp752
(I1
(tg10
I00
S"\xd9\x88\x9d'oZ^\xc0"
p753
tp754
bag1
(g2
(I0
tp755
g4
tp756
Rp757
(I1
(tg10
I00
S'X\xe4B\xc9\xa2dS\xc0'
p758
tp759
bag1
(g2
(I0
tp760
g4
tp761
Rp762
(I1
(tg10
I00
S'\x9c\x00\xddmGxS\xc0'
p763
tp764
bag1
(g2
(I0
tp765
g4
tp766
Rp767
(I1
(tg10
I00
S'\xe6\xfc\xcd\xdb\xf0\xd0c\xc0'
p768
tp769
bag1
(g2
(I0
tp770
g4
tp771
Rp772
(I1
(tg10
I00
S"'\xde\x90\xc9\xae\xf6P\xc0"
p773
tp774
bag1
(g2
(I0
tp775
g4
tp776
Rp777
(I1
(tg10
I00
S'\xf9\xe1J\xb5\xbf\x1cd\xc0'
p778
tp779
bag1
(g2
(I0
tp780
g4
tp781
Rp782
(I1
(tg10
I00
S'=c\xe7pGTm\xc0'
p783
tp784
bag1
(g2
(I0
tp785
g4
tp786
Rp787
(I1
(tg10
I00
S'*.mAT\xba_\xc0'
p788
tp789
bag1
(g2
(I0
tp790
g4
tp791
Rp792
(I1
(tg10
I00
S'd9\x9aT;\x12[\xc0'
p793
tp794
bag1
(g2
(I0
tp795
g4
tp796
Rp797
(I1
(tg10
I00
S'\xd5\xb7c\x86\xf9\x1eK\xc0'
p798
tp799
bag1
(g2
(I0
tp800
g4
tp801
Rp802
(I1
(tg10
I00
S'\xc4\x10e\xf8\x9a\xf2@\xc0'
p803
tp804
bag1
(g2
(I0
tp805
g4
tp806
Rp807
(I1
(tg10
I00
S'`q\xe5\xe2\xf2\xf9[\xc0'
p808
tp809
bag1
(g2
(I0
tp810
g4
tp811
Rp812
(I1
(tg10
I00
S'S\x94\x98=\x0b\x8cN\xc0'
p813
tp814
bag1
(g2
(I0
tp815
g4
tp816
Rp817
(I1
(tg10
I00
S'^\xb5\xb3\xa02ZD\xc0'
p818
tp819
bag1
(g2
(I0
tp820
g4
tp821
Rp822
(I1
(tg10
I00
S'\xa7 \x0b\xdb\x11vQ\xc0'
p823
tp824
bag1
(g2
(I0
tp825
g4
tp826
Rp827
(I1
(tg10
I00
S'\xdc\xa8h\x18\x85\nd\xc0'
p828
tp829
bag1
(g2
(I0
tp830
g4
tp831
Rp832
(I1
(tg10
I00
S' \xadf\x80T\x0bJ\xc0'
p833
tp834
bag1
(g2
(I0
tp835
g4
tp836
Rp837
(I1
(tg10
I00
S' \x10\x99\x0e\x04\\v\xc0'
p838
tp839
bag1
(g2
(I0
tp840
g4
tp841
Rp842
(I1
(tg10
I00
S'\x88\x1e_\x83*QN\xc0'
p843
tp844
bag1
(g2
(I0
tp845
g4
tp846
Rp847
(I1
(tg10
I00
S'\x13\xa3\xae\xb3\xfaEV\xc0'
p848
tp849
bag1
(g2
(I0
tp850
g4
tp851
Rp852
(I1
(tg10
I00
S'\xd3\x07u\x8ed\x9cB\xc0'
p853
tp854
bag1
(g2
(I0
tp855
g4
tp856
Rp857
(I1
(tg10
I00
S'5+l\xadR\xf48\xc0'
p858
tp859
bag1
(g2
(I0
tp860
g4
tp861
Rp862
(I1
(tg10
I00
S';T\xb2\xca\xfa?U\xc0'
p863
tp864
bag1
(g2
(I0
tp865
g4
tp866
Rp867
(I1
(tg10
I00
S'\xe6\\5\xf6\xd2|Z\xc0'
p868
tp869
bag1
(g2
(I0
tp870
g4
tp871
Rp872
(I1
(tg10
I00
S'\xd7E\xce\x91\xbc\xd1E\xc0'
p873
tp874
bag1
(g2
(I0
tp875
g4
tp876
Rp877
(I1
(tg10
I00
S'FJ\xe2\xbf1\x1ff\xc0'
p878
tp879
bag1
(g2
(I0
tp880
g4
tp881
Rp882
(I1
(tg10
I00
S'Y\x8b\x194\x92,e\xc0'
p883
tp884
bag1
(g2
(I0
tp885
g4
tp886
Rp887
(I1
(tg10
I00
S';\x9a!fw,X\xc0'
p888
tp889
bag1
(g2
(I0
tp890
g4
tp891
Rp892
(I1
(tg10
I00
S'@Z\xde\x89\x8fea\xc0'
p893
tp894
bag1
(g2
(I0
tp895
g4
tp896
Rp897
(I1
(tg10
I00
S'\xd4\xa2\x8c\xfe\xbd\xc0M\xc0'
p898
tp899
bag1
(g2
(I0
tp900
g4
tp901
Rp902
(I1
(tg10
I00
S'fX\x14=\xcd\xbfz\xc0'
p903
tp904
bag1
(g2
(I0
tp905
g4
tp906
Rp907
(I1
(tg10
I00
S'\x9b(\xa8Z\xdd4S\xc0'
p908
tp909
bag1
(g2
(I0
tp910
g4
tp911
Rp912
(I1
(tg10
I00
S'\x95%\x8fX9\xdfC\xc0'
p913
tp914
bag1
(g2
(I0
tp915
g4
tp916
Rp917
(I1
(tg10
I00
S'\xbf\xd8[L ub\xc0'
p918
tp919
bag1
(g2
(I0
tp920
g4
tp921
Rp922
(I1
(tg10
I00
S"6\x86W'i\xeeZ\xc0"
p923
tp924
bag1
(g2
(I0
tp925
g4
tp926
Rp927
(I1
(tg10
I00
S'\xe8\x07%\xafH\x03Q\xc0'
p928
tp929
bag1
(g2
(I0
tp930
g4
tp931
Rp932
(I1
(tg10
I00
S'0\xd4gpT\xd9j\xc0'
p933
tp934
bag1
(g2
(I0
tp935
g4
tp936
Rp937
(I1
(tg10
I00
S'(\xd0n]\xc2\xebX\xc0'
p938
tp939
bag1
(g2
(I0
tp940
g4
tp941
Rp942
(I1
(tg10
I00
S'\x06\x98\xb4\x96\xa6-s\xc0'
p943
tp944
bag1
(g2
(I0
tp945
g4
tp946
Rp947
(I1
(tg10
I00
S'\xe6\x87\x08\xd3\xdbrV\xc0'
p948
tp949
bag1
(g2
(I0
tp950
g4
tp951
Rp952
(I1
(tg10
I00
S'\xb4\x053&\x0e"v\xc0'
p953
tp954
bag1
(g2
(I0
tp955
g4
tp956
Rp957
(I1
(tg10
I00
S'\xb2\xc6)\x12;=\\\xc0'
p958
tp959
bag1
(g2
(I0
tp960
g4
tp961
Rp962
(I1
(tg10
I00
S'i\xae=\x06TLa\xc0'
p963
tp964
bag1
(g2
(I0
tp965
g4
tp966
Rp967
(I1
(tg10
I00
S'\xc4\x14?\r\xdcX`\xc0'
p968
tp969
bag1
(g2
(I0
tp970
g4
tp971
Rp972
(I1
(tg10
I00
S'\xca\xaf\xe0\xab\xa3\xf3j\xc0'
p973
tp974
bag1
(g2
(I0
tp975
g4
tp976
Rp977
(I1
(tg10
I00
S'\xf7\xb9\xab\xe2V\xfbU\xc0'
p978
tp979
bag1
(g2
(I0
tp980
g4
tp981
Rp982
(I1
(tg10
I00
S'\xdaes\xff\xfb\x07F\xc0'
p983
tp984
bag1
(g2
(I0
tp985
g4
tp986
Rp987
(I1
(tg10
I00
S'\xa3\x96.!\xa7\xf9=\xc0'
p988
tp989
bag1
(g2
(I0
tp990
g4
tp991
Rp992
(I1
(tg10
I00
S'\xa5\x04\x88p\xad~Z\xc0'
p993
tp994
bag1
(g2
(I0
tp995
g4
tp996
Rp997
(I1
(tg10
I00
S'\xd5\xd9\xd5\xa8\x90\xc9G\xc0'
p998
tp999
bag1
(g2
(I0
tp1000
g4
tp1001
Rp1002
(I1
(tg10
I00
S']\xcbm\xf02\xab^\xc0'
p1003
tp1004
bag1
(g2
(I0
tp1005
g4
tp1006
Rp1007
(I1
(tg10
I00
S'\xe2\xacy\xf5\xc9\x87?\xc0'
p1008
tp1009
bag1
(g2
(I0
tp1010
g4
tp1011
Rp1012
(I1
(tg10
I00
S'\x1d\xdb\xbc\xfe\xd7\xef`\xc0'
p1013
tp1014
bag1
(g2
(I0
tp1015
g4
tp1016
Rp1017
(I1
(tg10
I00
S'\r_\xa2\x7f\xf2qg\xc0'
p1018
tp1019
bag1
(g2
(I0
tp1020
g4
tp1021
Rp1022
(I1
(tg10
I00
S'\x89\xa3\x188\x15\xcaQ\xc0'
p1023
tp1024
bag1
(g2
(I0
tp1025
g4
tp1026
Rp1027
(I1
(tg10
I00
S'>\xaab\x06b\xb5V\xc0'
p1028
tp1029
bag1
(g2
(I0
tp1030
g4
tp1031
Rp1032
(I1
(tg10
I00
S'8\xacv\xb0T\xe6m\xc0'
p1033
tp1034
bag1
(g2
(I0
tp1035
g4
tp1036
Rp1037
(I1
(tg10
I00
S'n{\xe4\x01\xe24q\xc0'
p1038
tp1039
bag1
(g2
(I0
tp1040
g4
tp1041
Rp1042
(I1
(tg10
I00
S'$\x07\x9e\xcc\xebQc\xc0'
p1043
tp1044
bag1
(g2
(I0
tp1045
g4
tp1046
Rp1047
(I1
(tg10
I00
S'\xa1\x85q\x91\xa1de\xc0'
p1048
tp1049
bag1
(g2
(I0
tp1050
g4
tp1051
Rp1052
(I1
(tg10
I00
S'Y\xec\x11\xf5\xf9\xb4e\xc0'
p1053
tp1054
bag1
(g2
(I0
tp1055
g4
tp1056
Rp1057
(I1
(tg10
I00
S'\x10\xe6\x98$o[d\xc0'
p1058
tp1059
bag1
(g2
(I0
tp1060
g4
tp1061
Rp1062
(I1
(tg10
I00
S'H\xfe\x01<eyf\xc0'
p1063
tp1064
bag1
(g2
(I0
tp1065
g4
tp1066
Rp1067
(I1
(tg10
I00
S'\xc0\xe7AHZ\xe6C\xc0'
p1068
tp1069
bag1
(g2
(I0
tp1070
g4
tp1071
Rp1072
(I1
(tg10
I00
S'\x16\x8a|\xb0\xc5\tV\xc0'
p1073
tp1074
bag1
(g2
(I0
tp1075
g4
tp1076
Rp1077
(I1
(tg10
I00
S'\x7f\xd0\x91\x98\x0c_N\xc0'
p1078
tp1079
bag1
(g2
(I0
tp1080
g4
tp1081
Rp1082
(I1
(tg10
I00
S'\x95\x98\xa8\x17\x0b\xf3[\xc0'
p1083
tp1084
bag1
(g2
(I0
tp1085
g4
tp1086
Rp1087
(I1
(tg10
I00
S'\xb9;D\x195\x163\xc0'
p1088
tp1089
bag1
(g2
(I0
tp1090
g4
tp1091
Rp1092
(I1
(tg10
I00
S'\x02\xf0\xba\xaai/`\xc0'
p1093
tp1094
bag1
(g2
(I0
tp1095
g4
tp1096
Rp1097
(I1
(tg10
I00
S'\xa2|]\x99\x92;X\xc0'
p1098
tp1099
bag1
(g2
(I0
tp1100
g4
tp1101
Rp1102
(I1
(tg10
I00
S'\xd2\xf2\x90\xc3\xf8\x18T\xc0'
p1103
tp1104
bag1
(g2
(I0
tp1105
g4
tp1106
Rp1107
(I1
(tg10
I00
S'\x01\xf2T\xf5\x18NR\xc0'
p1108
tp1109
bag1
(g2
(I0
tp1110
g4
tp1111
Rp1112
(I1
(tg10
I00
S'\xab\xc0\xdf\xaf\xfd\x95n\xc0'
p1113
tp1114
bag1
(g2
(I0
tp1115
g4
tp1116
Rp1117
(I1
(tg10
I00
S'\xd4\xc9(<\xb353\xc0'
p1118
tp1119
bag1
(g2
(I0
tp1120
g4
tp1121
Rp1122
(I1
(tg10
I00
S'x\xb3\xc6\xf6\xcbPT\xc0'
p1123
tp1124
bag1
(g2
(I0
tp1125
g4
tp1126
Rp1127
(I1
(tg10
I00
S'\xaaQ\xd1\xf8x\xe1C\xc0'
p1128
tp1129
bag1
(g2
(I0
tp1130
g4
tp1131
Rp1132
(I1
(tg10
I00
S'vNn\xe2^\x9em\xc0'
p1133
tp1134
bag1
(g2
(I0
tp1135
g4
tp1136
Rp1137
(I1
(tg10
I00
S'\xf2\xef\x96-\xec\xe1J\xc0'
p1138
tp1139
bag1
(g2
(I0
tp1140
g4
tp1141
Rp1142
(I1
(tg10
I00
S'\xb4\xbde\xf3\xe1e`\xc0'
p1143
tp1144
bag1
(g2
(I0
tp1145
g4
tp1146
Rp1147
(I1
(tg10
I00
S'M\xf1v\xc5\xeb\x82R\xc0'
p1148
tp1149
bag1
(g2
(I0
tp1150
g4
tp1151
Rp1152
(I1
(tg10
I00
S'\xe7\xf9\xf8:s\xc1o\xc0'
p1153
tp1154
bag1
(g2
(I0
tp1155
g4
tp1156
Rp1157
(I1
(tg10
I00
S'\x03\xa4?3uda\xc0'
p1158
tp1159
bag1
(g2
(I0
tp1160
g4
tp1161
Rp1162
(I1
(tg10
I00
S'\x9d\xc9_\x87\xfd=T\xc0'
p1163
tp1164
bag1
(g2
(I0
tp1165
g4
tp1166
Rp1167
(I1
(tg10
I00
S'(7\xf8\xb0\xf9\x04c\xc0'
p1168
tp1169
bag1
(g2
(I0
tp1170
g4
tp1171
Rp1172
(I1
(tg10
I00
S'\x19\xe1\xff\x10\x179i\xc0'
p1173
tp1174
bag1
(g2
(I0
tp1175
g4
tp1176
Rp1177
(I1
(tg10
I00
S'\xad\xc4\xd3\xab51O\xc0'
p1178
tp1179
bag1
(g2
(I0
tp1180
g4
tp1181
Rp1182
(I1
(tg10
I00
S'\x12w\x92S\x93\x14A\xc0'
p1183
tp1184
bag1
(g2
(I0
tp1185
g4
tp1186
Rp1187
(I1
(tg10
I00
S'+\x0e\xbb\x8a\x8eL[\xc0'
p1188
tp1189
bag1
(g2
(I0
tp1190
g4
tp1191
Rp1192
(I1
(tg10
I00
S'vGiu\x8alj\xc0'
p1193
tp1194
bag1
(g2
(I0
tp1195
g4
tp1196
Rp1197
(I1
(tg10
I00
S'\xe8\xb7\xcf\x95\xe1q_\xc0'
p1198
tp1199
bag1
(g2
(I0
tp1200
g4
tp1201
Rp1202
(I1
(tg10
I00
S'n\x88\xbf3\xa0\x98Y\xc0'
p1203
tp1204
bag1
(g2
(I0
tp1205
g4
tp1206
Rp1207
(I1
(tg10
I00
S'l\xb4^\xec3QF\xc0'
p1208
tp1209
bag1
(g2
(I0
tp1210
g4
tp1211
Rp1212
(I1
(tg10
I00
S'\x85\x8b8\xd0\xf8\xf1`\xc0'
p1213
tp1214
bag1
(g2
(I0
tp1215
g4
tp1216
Rp1217
(I1
(tg10
I00
S'6\x8b\xdd\xe4\xed\x8ed\xc0'
p1218
tp1219
bag1
(g2
(I0
tp1220
g4
tp1221
Rp1222
(I1
(tg10
I00
S'\xc5\xcc\x08\x9b\xe1\x96a\xc0'
p1223
tp1224
bag1
(g2
(I0
tp1225
g4
tp1226
Rp1227
(I1
(tg10
I00
S'\x7f\x9f\x1f\xf6\x7f$U\xc0'
p1228
tp1229
bag1
(g2
(I0
tp1230
g4
tp1231
Rp1232
(I1
(tg10
I00
S'_y\xec\xb7\x07\xcc[\xc0'
p1233
tp1234
bag1
(g2
(I0
tp1235
g4
tp1236
Rp1237
(I1
(tg10
I00
S'\xe2/g\xfb\xf7\x94K\xc0'
p1238
tp1239
bag1
(g2
(I0
tp1240
g4
tp1241
Rp1242
(I1
(tg10
I00
S'\x08\xafu\xebb7X\xc0'
p1243
tp1244
bag1
(g2
(I0
tp1245
g4
tp1246
Rp1247
(I1
(tg10
I00
S'\xd3i\rM\x95\xdfa\xc0'
p1248
tp1249
bag1
(g2
(I0
tp1250
g4
tp1251
Rp1252
(I1
(tg10
I00
S'\x14\xab\x82\xc0\x81\x8c_\xc0'
p1253
tp1254
bag1
(g2
(I0
tp1255
g4
tp1256
Rp1257
(I1
(tg10
I00
S'\xd5\xd5\xee\xdfeuS\xc0'
p1258
tp1259
bag1
(g2
(I0
tp1260
g4
tp1261
Rp1262
(I1
(tg10
I00
S'{\xc8\x84\xc2\xa4\xdc;\xc0'
p1263
tp1264
bag1
(g2
(I0
tp1265
g4
tp1266
Rp1267
(I1
(tg10
I00
S'U\x07\xca+\x9c\x1f`\xc0'
p1268
tp1269
bag1
(g2
(I0
tp1270
g4
tp1271
Rp1272
(I1
(tg10
I00
S'\x84u\x94\xe8\xb7^`\xc0'
p1273
tp1274
bag1
(g2
(I0
tp1275
g4
tp1276
Rp1277
(I1
(tg10
I00
S'\xca\x1bA\x90\xec\x9e-\xc0'
p1278
tp1279
bag1
(g2
(I0
tp1280
g4
tp1281
Rp1282
(I1
(tg10
I00
S'\x156K\xc0\xd3o[\xc0'
p1283
tp1284
bag1
(g2
(I0
tp1285
g4
tp1286
Rp1287
(I1
(tg10
I00
S'#\x86vt&RG\xc0'
p1288
tp1289
bag1
(g2
(I0
tp1290
g4
tp1291
Rp1292
(I1
(tg10
I00
S'D\xc1\x9c\xcc>\x02i\xc0'
p1293
tp1294
bag1
(g2
(I0
tp1295
g4
tp1296
Rp1297
(I1
(tg10
I00
S'\xc8bh\rZ\xb0b\xc0'
p1298
tp1299
bag1
(g2
(I0
tp1300
g4
tp1301
Rp1302
(I1
(tg10
I00
S'js\xcb\x903h\\\xc0'
p1303
tp1304
bag1
(g2
(I0
tp1305
g4
tp1306
Rp1307
(I1
(tg10
I00
S'\x01\xb19\xc8\x06\xb1R\xc0'
p1308
tp1309
bag1
(g2
(I0
tp1310
g4
tp1311
Rp1312
(I1
(tg10
I00
S'\xa8\x91o\xa3w\xedw\xc0'
p1313
tp1314
bag1
(g2
(I0
tp1315
g4
tp1316
Rp1317
(I1
(tg10
I00
S'\xb8t\xc9\xcfsP[\xc0'
p1318
tp1319
bag1
(g2
(I0
tp1320
g4
tp1321
Rp1322
(I1
(tg10
I00
S'8d\xd3\xa0\xe8\x86F\xc0'
p1323
tp1324
bag1
(g2
(I0
tp1325
g4
tp1326
Rp1327
(I1
(tg10
I00
S'>$%\xee\x14\xffK\xc0'
p1328
tp1329
bag1
(g2
(I0
tp1330
g4
tp1331
Rp1332
(I1
(tg10
I00
S'\xab\xafL\xce\xd4\xdc9\xc0'
p1333
tp1334
bag1
(g2
(I0
tp1335
g4
tp1336
Rp1337
(I1
(tg10
I00
S'\xc5\xae\x01\xfd \x0c\\\xc0'
p1338
tp1339
bag1
(g2
(I0
tp1340
g4
tp1341
Rp1342
(I1
(tg10
I00
S'\xea\xf9\xd4T_\xf1M\xc0'
p1343
tp1344
bag1
(g2
(I0
tp1345
g4
tp1346
Rp1347
(I1
(tg10
I00
S'\xd2\xbe\xa8D\xd4x[\xc0'
p1348
tp1349
bag1
(g2
(I0
tp1350
g4
tp1351
Rp1352
(I1
(tg10
I00
S'\xe4\xcet\xe8\x9d;b\xc0'
p1353
tp1354
bag1
(g2
(I0
tp1355
g4
tp1356
Rp1357
(I1
(tg10
I00
S'\xd2\x85-:]\xce`\xc0'
p1358
tp1359
bag1
(g2
(I0
tp1360
g4
tp1361
Rp1362
(I1
(tg10
I00
S'\xca\xbc!\xb7\xd9`O\xc0'
p1363
tp1364
bag1
(g2
(I0
tp1365
g4
tp1366
Rp1367
(I1
(tg10
I00
S'\x1bK}"\xd7\xf0E\xc0'
p1368
tp1369
bag1
(g2
(I0
tp1370
g4
tp1371
Rp1372
(I1
(tg10
I00
S'7\xaf\x95\xad\xaeoX\xc0'
p1373
tp1374
bag1
(g2
(I0
tp1375
g4
tp1376
Rp1377
(I1
(tg10
I00
S'\xca\xf6E\xa7\xcd$l\xc0'
p1378
tp1379
bag1
(g2
(I0
tp1380
g4
tp1381
Rp1382
(I1
(tg10
I00
S'\xeb\xf9\x8fj#\x86;\xc0'
p1383
tp1384
bag1
(g2
(I0
tp1385
g4
tp1386
Rp1387
(I1
(tg10
I00
S'\x98"\xbd\x89|\x908\xc0'
p1388
tp1389
bag1
(g2
(I0
tp1390
g4
tp1391
Rp1392
(I1
(tg10
I00
S'\xcf\xb5K\xcf\x03U1\xc0'
p1393
tp1394
bag1
(g2
(I0
tp1395
g4
tp1396
Rp1397
(I1
(tg10
I00
S'R\xaeY\xb4JgO\xc0'
p1398
tp1399
bag1
(g2
(I0
tp1400
g4
tp1401
Rp1402
(I1
(tg10
I00
S'\x0c\x94\xe1q\x04\xdfT\xc0'
p1403
tp1404
bag1
(g2
(I0
tp1405
g4
tp1406
Rp1407
(I1
(tg10
I00
S'\xd8\xe6_\xa2u\xe3b\xc0'
p1408
tp1409
bag1
(g2
(I0
tp1410
g4
tp1411
Rp1412
(I1
(tg10
I00
S'\xbd\x11}\xca\xa6eP\xc0'
p1413
tp1414
bag1
(g2
(I0
tp1415
g4
tp1416
Rp1417
(I1
(tg10
I00
S'=\xf2N\xb1\xa7\xe6X\xc0'
p1418
tp1419
bag1
(g2
(I0
tp1420
g4
tp1421
Rp1422
(I1
(tg10
I00
S'\xf92\xc4\x80\x88\xdbN\xc0'
p1423
tp1424
bag1
(g2
(I0
tp1425
g4
tp1426
Rp1427
(I1
(tg10
I00
S'\xe3\xa5\x8aE\xf6cY\xc0'
p1428
tp1429
bag1
(g2
(I0
tp1430
g4
tp1431
Rp1432
(I1
(tg10
I00
S'9\xf6\xde\xe2\x93\xe22\xc0'
p1433
tp1434
bag1
(g2
(I0
tp1435
g4
tp1436
Rp1437
(I1
(tg10
I00
S'\xdbmr\x85\xad%W\xc0'
p1438
tp1439
bag1
(g2
(I0
tp1440
g4
tp1441
Rp1442
(I1
(tg10
I00
S'`\xfbKl\xca@`\xc0'
p1443
tp1444
bag1
(g2
(I0
tp1445
g4
tp1446
Rp1447
(I1
(tg10
I00
S'\x07%r>\xb0\xd8Y\xc0'
p1448
tp1449
bag1
(g2
(I0
tp1450
g4
tp1451
Rp1452
(I1
(tg10
I00
S'\x14\x8e\xfb\x1a\xb3*`\xc0'
p1453
tp1454
bag1
(g2
(I0
tp1455
g4
tp1456
Rp1457
(I1
(tg10
I00
S'\x1d\xe4\x90\xa2^9a\xc0'
p1458
tp1459
bag1
(g2
(I0
tp1460
g4
tp1461
Rp1462
(I1
(tg10
I00
S'\xde\xe2\x98\x99\xa0\xcbo\xc0'
p1463
tp1464
bag1
(g2
(I0
tp1465
g4
tp1466
Rp1467
(I1
(tg10
I00
S'~\x11V\xc5Z\xddb\xc0'
p1468
tp1469
bag1
(g2
(I0
tp1470
g4
tp1471
Rp1472
(I1
(tg10
I00
S'\x8e)\x07=9\x1e4\xc0'
p1473
tp1474
bag1
(g2
(I0
tp1475
g4
tp1476
Rp1477
(I1
(tg10
I00
S'\x1f\xf7\xc1z\x0c\xc0S\xc0'
p1478
tp1479
bag1
(g2
(I0
tp1480
g4
tp1481
Rp1482
(I1
(tg10
I00
S'\x1c\xe8\x02)\xe3\x8cS\xc0'
p1483
tp1484
bag1
(g2
(I0
tp1485
g4
tp1486
Rp1487
(I1
(tg10
I00
S'N\xe4z\xec\x1e\x0b_\xc0'
p1488
tp1489
bag1
(g2
(I0
tp1490
g4
tp1491
Rp1492
(I1
(tg10
I00
S'\x01\xf7\xc4C\n\xd1S\xc0'
p1493
tp1494
bag1
(g2
(I0
tp1495
g4
tp1496
Rp1497
(I1
(tg10
I00
S'\x99\r\xaf\x8c\xe31j\xc0'
p1498
tp1499
bag1
(g2
(I0
tp1500
g4
tp1501
Rp1502
(I1
(tg10
I00
S'\xa3\xccm\x8c\x10\xeaZ\xc0'
p1503
tp1504
bag1
(g2
(I0
tp1505
g4
tp1506
Rp1507
(I1
(tg10
I00
S'S\x0f\x98\xaa\x81GV\xc0'
p1508
tp1509
bag1
(g2
(I0
tp1510
g4
tp1511
Rp1512
(I1
(tg10
I00
S'\xa6\xf8\xa2\xb9I\xe9S\xc0'
p1513
tp1514
bag1
(g2
(I0
tp1515
g4
tp1516
Rp1517
(I1
(tg10
I00
S'\t\xdb\xbd,1\xb7@\xc0'
p1518
tp1519
bag1
(g2
(I0
tp1520
g4
tp1521
Rp1522
(I1
(tg10
I00
S'1\xfe\x86V\xc1\xcdR\xc0'
p1523
tp1524
bag1
(g2
(I0
tp1525
g4
tp1526
Rp1527
(I1
(tg10
I00
S'\xa47\xbcn\x9a\xccT\xc0'
p1528
tp1529
bag1
(g2
(I0
tp1530
g4
tp1531
Rp1532
(I1
(tg10
I00
S'\xa7\xc6\xdc\x06\xf6.O\xc0'
p1533
tp1534
bag1
(g2
(I0
tp1535
g4
tp1536
Rp1537
(I1
(tg10
I00
S'\xd1V\xc5\xad0\xea[\xc0'
p1538
tp1539
bag1
(g2
(I0
tp1540
g4
tp1541
Rp1542
(I1
(tg10
I00
S'5!"\xb2\x11\x9e\\\xc0'
p1543
tp1544
bag1
(g2
(I0
tp1545
g4
tp1546
Rp1547
(I1
(tg10
I00
S'L\xfe\xe7\xd7\xdd\x80Z\xc0'
p1548
tp1549
bag1
(g2
(I0
tp1550
g4
tp1551
Rp1552
(I1
(tg10
I00
S'\x8a\xe6`I\xfe\xe4V\xc0'
p1553
tp1554
bag1
(g2
(I0
tp1555
g4
tp1556
Rp1557
(I1
(tg10
I00
S'\x80\x14\x92\xb0\xf12I\xc0'
p1558
tp1559
bag1
(g2
(I0
tp1560
g4
tp1561
Rp1562
(I1
(tg10
I00
S'#\xa4@@7^`\xc0'
p1563
tp1564
bag1
(g2
(I0
tp1565
g4
tp1566
Rp1567
(I1
(tg10
I00
S'\r\x97R\xe0\xc4\x8d<\xc0'
p1568
tp1569
bag1
(g2
(I0
tp1570
g4
tp1571
Rp1572
(I1
(tg10
I00
S'\xa1\xfc*\xe4\x83\x1aH\xc0'
p1573
tp1574
bag1
(g2
(I0
tp1575
g4
tp1576
Rp1577
(I1
(tg10
I00
S'?A~(d\x93`\xc0'
p1578
tp1579
bag1
(g2
(I0
tp1580
g4
tp1581
Rp1582
(I1
(tg10
I00
S'j\xaf\xf3)\xe8\xf9N\xc0'
p1583
tp1584
bag1
(g2
(I0
tp1585
g4
tp1586
Rp1587
(I1
(tg10
I00
S'\x17\xf4g\xf5\xe83A\xc0'
p1588
tp1589
bag1
(g2
(I0
tp1590
g4
tp1591
Rp1592
(I1
(tg10
I00
S'\xe3\xc4\x0c\xca\xcewO\xc0'
p1593
tp1594
bag1
(g2
(I0
tp1595
g4
tp1596
Rp1597
(I1
(tg10
I00
S'34\xd3\xf0khU\xc0'
p1598
tp1599
bag1
(g2
(I0
tp1600
g4
tp1601
Rp1602
(I1
(tg10
I00
S'P\x83\xbc\x9d\xe1\xac2\xc0'
p1603
tp1604
bag1
(g2
(I0
tp1605
g4
tp1606
Rp1607
(I1
(tg10
I00
S'\\\xeb\x8b\xb2\xf5\x03F\xc0'
p1608
tp1609
bag1
(g2
(I0
tp1610
g4
tp1611
Rp1612
(I1
(tg10
I00
S'\xa1\xef*\x8b\x06JR\xc0'
p1613
tp1614
bag1
(g2
(I0
tp1615
g4
tp1616
Rp1617
(I1
(tg10
I00
S'\x9f\xa71\xd1\xa1\x02d\xc0'
p1618
tp1619
bag1
(g2
(I0
tp1620
g4
tp1621
Rp1622
(I1
(tg10
I00
S"\x1a'\xe60n\xb2R\xc0"
p1623
tp1624
bag1
(g2
(I0
tp1625
g4
tp1626
Rp1627
(I1
(tg10
I00
S'.\x88\x01!\xed)D\xc0'
p1628
tp1629
bag1
(g2
(I0
tp1630
g4
tp1631
Rp1632
(I1
(tg10
I00
S'\xe6\x1d\xa3\x91m\na\xc0'
p1633
tp1634
bag1
(g2
(I0
tp1635
g4
tp1636
Rp1637
(I1
(tg10
I00
S'-\xbd\x04+\x15&M\xc0'
p1638
tp1639
bag1
(g2
(I0
tp1640
g4
tp1641
Rp1642
(I1
(tg10
I00
S'\x1c\xd8\xf2\x0c,\xcdW\xc0'
p1643
tp1644
bag1
(g2
(I0
tp1645
g4
tp1646
Rp1647
(I1
(tg10
I00
S'\xbeW[`m\x1ap\xc0'
p1648
tp1649
bag1
(g2
(I0
tp1650
g4
tp1651
Rp1652
(I1
(tg10
I00
S'++\xdb\x06\xd3%.\xc0'
p1653
tp1654
bag1
(g2
(I0
tp1655
g4
tp1656
Rp1657
(I1
(tg10
I00
S'\x9f\x8d2\x8b\xb9 Y\xc0'
p1658
tp1659
bag1
(g2
(I0
tp1660
g4
tp1661
Rp1662
(I1
(tg10
I00
S'\xad#_\x08\x07\xfaX\xc0'
p1663
tp1664
bag1
(g2
(I0
tp1665
g4
tp1666
Rp1667
(I1
(tg10
I00
S'\xc8\x0fsl\xc6*R\xc0'
p1668
tp1669
bag1
(g2
(I0
tp1670
g4
tp1671
Rp1672
(I1
(tg10
I00
S'\x96O\xf4\xbb\xdc\x8eJ\xc0'
p1673
tp1674
bag1
(g2
(I0
tp1675
g4
tp1676
Rp1677
(I1
(tg10
I00
S"\xcc\xa5\xf8\x07\n'P\xc0"
p1678
tp1679
bag1
(g2
(I0
tp1680
g4
tp1681
Rp1682
(I1
(tg10
I00
S'\x87xIO&\x1bW\xc0'
p1683
tp1684
bag1
(g2
(I0
tp1685
g4
tp1686
Rp1687
(I1
(tg10
I00
S'\xf2\xa4E/jyJ\xc0'
p1688
tp1689
bag1
(g2
(I0
tp1690
g4
tp1691
Rp1692
(I1
(tg10
I00
S'G$d\xbe\xe0\xe4=\xc0'
p1693
tp1694
bag1
(g2
(I0
tp1695
g4
tp1696
Rp1697
(I1
(tg10
I00
S'\xfa\xe7\xeeq\xe2\xddB\xc0'
p1698
tp1699
bag1
(g2
(I0
tp1700
g4
tp1701
Rp1702
(I1
(tg10
I00
S'wG\xec\xfc\xdc\xf3O\xc0'
p1703
tp1704
bag1
(g2
(I0
tp1705
g4
tp1706
Rp1707
(I1
(tg10
I00
S'\xb3?l\xad~*a\xc0'
p1708
tp1709
bag1
(g2
(I0
tp1710
g4
tp1711
Rp1712
(I1
(tg10
I00
S'\xad\xd8I\xb39KS\xc0'
p1713
tp1714
bag1
(g2
(I0
tp1715
g4
tp1716
Rp1717
(I1
(tg10
I00
S'q\x94\x916\xef\xff^\xc0'
p1718
tp1719
bag1
(g2
(I0
tp1720
g4
tp1721
Rp1722
(I1
(tg10
I00
S'5\xf9a@\x99nX\xc0'
p1723
tp1724
bag1
(g2
(I0
tp1725
g4
tp1726
Rp1727
(I1
(tg10
I00
S'\xfbJT\x89\xfc$T\xc0'
p1728
tp1729
bag1
(g2
(I0
tp1730
g4
tp1731
Rp1732
(I1
(tg10
I00
S',\xc6\xaaw[fZ\xc0'
p1733
tp1734
bag1
(g2
(I0
tp1735
g4
tp1736
Rp1737
(I1
(tg10
I00
S'\xb9\x80j\t\xd1\x97P\xc0'
p1738
tp1739
bag1
(g2
(I0
tp1740
g4
tp1741
Rp1742
(I1
(tg10
I00
S'\x95\x100\xf2\x1c\xff]\xc0'
p1743
tp1744
bag1
(g2
(I0
tp1745
g4
tp1746
Rp1747
(I1
(tg10
I00
S'V"O\xd4y\x8aD\xc0'
p1748
tp1749
bag1
(g2
(I0
tp1750
g4
tp1751
Rp1752
(I1
(tg10
I00
S'\x06I\x15c\x99XG\xc0'
p1753
tp1754
bag1
(g2
(I0
tp1755
g4
tp1756
Rp1757
(I1
(tg10
I00
S'\x00\x99\xc6\x8b\xeb\xb5T\xc0'
p1758
tp1759
bag1
(g2
(I0
tp1760
g4
tp1761
Rp1762
(I1
(tg10
I00
S'L\x0bA)\x19\x8aP\xc0'
p1763
tp1764
bag1
(g2
(I0
tp1765
g4
tp1766
Rp1767
(I1
(tg10
I00
S'\x7f~\xd7w\x8f\x87L\xc0'
p1768
tp1769
bag1
(g2
(I0
tp1770
g4
tp1771
Rp1772
(I1
(tg10
I00
S'\x96\xc5|\xc0\xd4\x9b:\xc0'
p1773
tp1774
bag1
(g2
(I0
tp1775
g4
tp1776
Rp1777
(I1
(tg10
I00
S'\x05\x87iAL\x02S\xc0'
p1778
tp1779
bag1
(g2
(I0
tp1780
g4
tp1781
Rp1782
(I1
(tg10
I00
S'\x86\x7f\xf0gO\xe7e\xc0'
p1783
tp1784
bag1
(g2
(I0
tp1785
g4
tp1786
Rp1787
(I1
(tg10
I00
S'?\x14!A\xdf\xd3n\xc0'
p1788
tp1789
bag1
(g2
(I0
tp1790
g4
tp1791
Rp1792
(I1
(tg10
I00
S'5cp\xac\xb6\x0ba\xc0'
p1793
tp1794
bag1
(g2
(I0
tp1795
g4
tp1796
Rp1797
(I1
(tg10
I00
S'\xd8\x158[\x14gY\xc0'
p1798
tp1799
bag1
(g2
(I0
tp1800
g4
tp1801
Rp1802
(I1
(tg10
I00
S'\x06VJ\xf9\xf3\x1aT\xc0'
p1803
tp1804
bag1
(g2
(I0
tp1805
g4
tp1806
Rp1807
(I1
(tg10
I00
S"'Ew\x98E,b\xc0"
p1808
tp1809
bag1
(g2
(I0
tp1810
g4
tp1811
Rp1812
(I1
(tg10
I00
S')Xq\x9a\x97\x12G\xc0'
p1813
tp1814
bag1
(g2
(I0
tp1815
g4
tp1816
Rp1817
(I1
(tg10
I00
S'k%\xd2i\x86\x96a\xc0'
p1818
tp1819
bag1
(g2
(I0
tp1820
g4
tp1821
Rp1822
(I1
(tg10
I00
S':\x0b\xf5q\xc1PO\xc0'
p1823
tp1824
bag1
(g2
(I0
tp1825
g4
tp1826
Rp1827
(I1
(tg10
I00
S'\xe0O\xf8\x8b.\x11i\xc0'
p1828
tp1829
bag1
(g2
(I0
tp1830
g4
tp1831
Rp1832
(I1
(tg10
I00
S'\xcak\xa6%g~B\xc0'
p1833
tp1834
bag1
(g2
(I0
tp1835
g4
tp1836
Rp1837
(I1
(tg10
I00
S'\x87@Q\xab}5B\xc0'
p1838
tp1839
bag1
(g2
(I0
tp1840
g4
tp1841
Rp1842
(I1
(tg10
I00
S'>O\xf4\x93\x13\x8fF\xc0'
p1843
tp1844
bag1
(g2
(I0
tp1845
g4
tp1846
Rp1847
(I1
(tg10
I00
S'\x88\xeb\x1a{A\xedg\xc0'
p1848
tp1849
bag1
(g2
(I0
tp1850
g4
tp1851
Rp1852
(I1
(tg10
I00
S'\xdf\xf0\xb4\xf0\xa9\xee5\xc0'
p1853
tp1854
bag1
(g2
(I0
tp1855
g4
tp1856
Rp1857
(I1
(tg10
I00
S'\x94\xcf}\xedo\x89A\xc0'
p1858
tp1859
bag1
(g2
(I0
tp1860
g4
tp1861
Rp1862
(I1
(tg10
I00
S"\x94\xe4'\x1c\xcfj`\xc0"
p1863
tp1864
bag1
(g2
(I0
tp1865
g4
tp1866
Rp1867
(I1
(tg10
I00
S'%|\x06\xc0Y(c\xc0'
p1868
tp1869
bag1
(g2
(I0
tp1870
g4
tp1871
Rp1872
(I1
(tg10
I00
S'k@A\xbe\x01\x92i\xc0'
p1873
tp1874
bag1
(g2
(I0
tp1875
g4
tp1876
Rp1877
(I1
(tg10
I00
S'\x98\x16\x9b*\x82\xabT\xc0'
p1878
tp1879
bag1
(g2
(I0
tp1880
g4
tp1881
Rp1882
(I1
(tg10
I00
S'^|\xa5\x81V|\\\xc0'
p1883
tp1884
bag1
(g2
(I0
tp1885
g4
tp1886
Rp1887
(I1
(tg10
I00
S'\xa4\xd8\xf1\xb6\xeeXW\xc0'
p1888
tp1889
bag1
(g2
(I0
tp1890
g4
tp1891
Rp1892
(I1
(tg10
I00
S'\xcd\x18\xb1?\xe8qJ\xc0'
p1893
tp1894
bag1
(g2
(I0
tp1895
g4
tp1896
Rp1897
(I1
(tg10
I00
S'\x04\xcda\x85\xb1~k\xc0'
p1898
tp1899
bag1
(g2
(I0
tp1900
g4
tp1901
Rp1902
(I1
(tg10
I00
S'\x00\xbb+3\xc2+B\xc0'
p1903
tp1904
bag1
(g2
(I0
tp1905
g4
tp1906
Rp1907
(I1
(tg10
I00
S'x\x04"\x08\x85\xdcQ\xc0'
p1908
tp1909
bag1
(g2
(I0
tp1910
g4
tp1911
Rp1912
(I1
(tg10
I00
S'\xde\x0b&\xde\xe8\x9aS\xc0'
p1913
tp1914
bag1
(g2
(I0
tp1915
g4
tp1916
Rp1917
(I1
(tg10
I00
S'8\xc1.\x1b\xae\xb3I\xc0'
p1918
tp1919
bag1
(g2
(I0
tp1920
g4
tp1921
Rp1922
(I1
(tg10
I00
S'\xa2\x1by\xe9\x1a\x92L\xc0'
p1923
tp1924
bag1
(g2
(I0
tp1925
g4
tp1926
Rp1927
(I1
(tg10
I00
S'\x154\x0b\xf1\x07\xc4O\xc0'
p1928
tp1929
bag1
(g2
(I0
tp1930
g4
tp1931
Rp1932
(I1
(tg10
I00
S'\xb7F\x02>\xbc%Y\xc0'
p1933
tp1934
bag1
(g2
(I0
tp1935
g4
tp1936
Rp1937
(I1
(tg10
I00
S'\x92\\*\xc6?\x1fE\xc0'
p1938
tp1939
bag1
(g2
(I0
tp1940
g4
tp1941
Rp1942
(I1
(tg10
I00
S'\x8a[[\xb9\xf86v\xc0'
p1943
tp1944
bag1
(g2
(I0
tp1945
g4
tp1946
Rp1947
(I1
(tg10
I00
S'D\xa5=\x18#\x99L\xc0'
p1948
tp1949
bag1
(g2
(I0
tp1950
g4
tp1951
Rp1952
(I1
(tg10
I00
S'\x9f\xe9!\xd1\xba\xd0;\xc0'
p1953
tp1954
bag1
(g2
(I0
tp1955
g4
tp1956
Rp1957
(I1
(tg10
I00
S'\x8bh\xc8[\xbd&P\xc0'
p1958
tp1959
bag1
(g2
(I0
tp1960
g4
tp1961
Rp1962
(I1
(tg10
I00
S'\x17X\xde\x12i\xa2W\xc0'
p1963
tp1964
bag1
(g2
(I0
tp1965
g4
tp1966
Rp1967
(I1
(tg10
I00
S'\xb2`\xfaq\xed\\R\xc0'
p1968
tp1969
bag1
(g2
(I0
tp1970
g4
tp1971
Rp1972
(I1
(tg10
I00
S'Fk\xd5\xea\x05\xbf`\xc0'
p1973
tp1974
bag1
(g2
(I0
tp1975
g4
tp1976
Rp1977
(I1
(tg10
I00
S'O>\xa2\x9a\x93\x0fA\xc0'
p1978
tp1979
bag1
(g2
(I0
tp1980
g4
tp1981
Rp1982
(I1
(tg10
I00
S'K5\x18\x85\xe1\xd4T\xc0'
p1983
tp1984
bag1
(g2
(I0
tp1985
g4
tp1986
Rp1987
(I1
(tg10
I00
S' `\x1f\xc9\xfb\xa8s\xc0'
p1988
tp1989
bag1
(g2
(I0
tp1990
g4
tp1991
Rp1992
(I1
(tg10
I00
S"3u\xf2\xe7'\xc7W\xc0"
p1993
tp1994
bag1
(g2
(I0
tp1995
g4
tp1996
Rp1997
(I1
(tg10
I00
S'\x96\xf3\xfc\x88\x19\x0cX\xc0'
p1998
tp1999
bag1
(g2
(I0
tp2000
g4
tp2001
Rp2002
(I1
(tg10
I00
S'\x84\xe6\x82\x1b\x93\xb1a\xc0'
p2003
tp2004
bag1
(g2
(I0
tp2005
g4
tp2006
Rp2007
(I1
(tg10
I00
S'[\xa2\t\xd1]\xd9@\xc0'
p2008
tp2009
bag1
(g2
(I0
tp2010
g4
tp2011
Rp2012
(I1
(tg10
I00
S'a\x8b\xf8\xdb\xaf\xbb`\xc0'
p2013
tp2014
bag1
(g2
(I0
tp2015
g4
tp2016
Rp2017
(I1
(tg10
I00
S'\xdf\xbe\x9a\xaf\xd7#Z\xc0'
p2018
tp2019
bag1
(g2
(I0
tp2020
g4
tp2021
Rp2022
(I1
(tg10
I00
S'\xd35@\xa6M\x1cd\xc0'
p2023
tp2024
bag1
(g2
(I0
tp2025
g4
tp2026
Rp2027
(I1
(tg10
I00
S'<(pJOF]\xc0'
p2028
tp2029
bag1
(g2
(I0
tp2030
g4
tp2031
Rp2032
(I1
(tg10
I00
S'v\x85\xee\x87\xf5Le\xc0'
p2033
tp2034
bag1
(g2
(I0
tp2035
g4
tp2036
Rp2037
(I1
(tg10
I00
S'\x94\xcb\xa3\xc5H\x07c\xc0'
p2038
tp2039
bag1
(g2
(I0
tp2040
g4
tp2041
Rp2042
(I1
(tg10
I00
S'\xd9\n\x9c\xcb\x11\x16k\xc0'
p2043
tp2044
bag1
(g2
(I0
tp2045
g4
tp2046
Rp2047
(I1
(tg10
I00
S'\xcb\xf1\xef\xee\xcc\xf3~\xc0'
p2048
tp2049
bag1
(g2
(I0
tp2050
g4
tp2051
Rp2052
(I1
(tg10
I00
S'/\x9b0\xc5\x0b\x9dW\xc0'
p2053
tp2054
bag1
(g2
(I0
tp2055
g4
tp2056
Rp2057
(I1
(tg10
I00
S'\xe2|\xef\xdeD\x1fN\xc0'
p2058
tp2059
bag1
(g2
(I0
tp2060
g4
tp2061
Rp2062
(I1
(tg10
I00
S'\x10A\xcf\xd9\\-B\xc0'
p2063
tp2064
bag1
(g2
(I0
tp2065
g4
tp2066
Rp2067
(I1
(tg10
I00
S'\x9241YgZ,\xc0'
p2068
tp2069
bag1
(g2
(I0
tp2070
g4
tp2071
Rp2072
(I1
(tg10
I00
S'\xfa^\xc6@\x08\x04b\xc0'
p2073
tp2074
bag1
(g2
(I0
tp2075
g4
tp2076
Rp2077
(I1
(tg10
I00
S'T\x14\x99:\x9b\xdeg\xc0'
p2078
tp2079
bag1
(g2
(I0
tp2080
g4
tp2081
Rp2082
(I1
(tg10
I00
S'lhA\xebs\xe9i\xc0'
p2083
tp2084
bag1
(g2
(I0
tp2085
g4
tp2086
Rp2087
(I1
(tg10
I00
S'\x0f\xdf\xee\xd7,^k\xc0'
p2088
tp2089
bag1
(g2
(I0
tp2090
g4
tp2091
Rp2092
(I1
(tg10
I00
S'>\x80x\xec\x08\xb9X\xc0'
p2093
tp2094
bag1
(g2
(I0
tp2095
g4
tp2096
Rp2097
(I1
(tg10
I00
S'\xb4g\x92y\x1dab\xc0'
p2098
tp2099
bag1
(g2
(I0
tp2100
g4
tp2101
Rp2102
(I1
(tg10
I00
S'\xf5n\xad0\x90\xc9`\xc0'
p2103
tp2104
bag1
(g2
(I0
tp2105
g4
tp2106
Rp2107
(I1
(tg10
I00
S'!\xd4_\x9f\xa09N\xc0'
p2108
tp2109
bag1
(g2
(I0
tp2110
g4
tp2111
Rp2112
(I1
(tg10
I00
S"6'b\xd0H\x97Q\xc0"
p2113
tp2114
bag1
(g2
(I0
tp2115
g4
tp2116
Rp2117
(I1
(tg10
I00
S'\x91?#*\x88\xcb_\xc0'
p2118
tp2119
bag1
(g2
(I0
tp2120
g4
tp2121
Rp2122
(I1
(tg10
I00
S'A&\xf1\xc4\x85(f\xc0'
p2123
tp2124
bag1
(g2
(I0
tp2125
g4
tp2126
Rp2127
(I1
(tg10
I00
S'^\xd6uA\x07_`\xc0'
p2128
tp2129
bag1
(g2
(I0
tp2130
g4
tp2131
Rp2132
(I1
(tg10
I00
S'\x82.\xb7\x12\xfa\xadR\xc0'
p2133
tp2134
bag1
(g2
(I0
tp2135
g4
tp2136
Rp2137
(I1
(tg10
I00
S'k9\x0e\xa5\xeb\xcbN\xc0'
p2138
tp2139
bag1
(g2
(I0
tp2140
g4
tp2141
Rp2142
(I1
(tg10
I00
S'\xfa\x8e\x92\x96\xea\xcfU\xc0'
p2143
tp2144
bag1
(g2
(I0
tp2145
g4
tp2146
Rp2147
(I1
(tg10
I00
S'[k\x9a\xe4)QG\xc0'
p2148
tp2149
bag1
(g2
(I0
tp2150
g4
tp2151
Rp2152
(I1
(tg10
I00
S'\x04\xf7\xc3l=vY\xc0'
p2153
tp2154
bag1
(g2
(I0
tp2155
g4
tp2156
Rp2157
(I1
(tg10
I00
S'*\x1dy]\x9a\xeeM\xc0'
p2158
tp2159
bag1
(g2
(I0
tp2160
g4
tp2161
Rp2162
(I1
(tg10
I00
S'\x15\xa7\xd9\xc3\x10\xe9Y\xc0'
p2163
tp2164
bag1
(g2
(I0
tp2165
g4
tp2166
Rp2167
(I1
(tg10
I00
S'$&\r\x99\x92k]\xc0'
p2168
tp2169
bag1
(g2
(I0
tp2170
g4
tp2171
Rp2172
(I1
(tg10
I00
S'\x0c\xd5\x7f3E\xc9O\xc0'
p2173
tp2174
bag1
(g2
(I0
tp2175
g4
tp2176
Rp2177
(I1
(tg10
I00
S'\xd2\x80\xf4\xda\x9cH`\xc0'
p2178
tp2179
bag1
(g2
(I0
tp2180
g4
tp2181
Rp2182
(I1
(tg10
I00
S'\x83B\x04Kw\x8aT\xc0'
p2183
tp2184
bag1
(g2
(I0
tp2185
g4
tp2186
Rp2187
(I1
(tg10
I00
S'p<\xdd\xbaP\x1c\\\xc0'
p2188
tp2189
bag1
(g2
(I0
tp2190
g4
tp2191
Rp2192
(I1
(tg10
I00
S'\x0b\xaeR\xbc\n\xbeb\xc0'
p2193
tp2194
bag1
(g2
(I0
tp2195
g4
tp2196
Rp2197
(I1
(tg10
I00
S'Q\xf3\xf9\xf7\x14eo\xc0'
p2198
tp2199
bag1
(g2
(I0
tp2200
g4
tp2201
Rp2202
(I1
(tg10
I00
S'\xcb\xca\x92T\x8e$?\xc0'
p2203
tp2204
bag1
(g2
(I0
tp2205
g4
tp2206
Rp2207
(I1
(tg10
I00
S'\x0c\xed\xfe\xddRh@\xc0'
p2208
tp2209
bag1
(g2
(I0
tp2210
g4
tp2211
Rp2212
(I1
(tg10
I00
S'K%m\xaf\xd8\xfaG\xc0'
p2213
tp2214
bag1
(g2
(I0
tp2215
g4
tp2216
Rp2217
(I1
(tg10
I00
S'\xbf\x15\x0b{\xaf"X\xc0'
p2218
tp2219
bag1
(g2
(I0
tp2220
g4
tp2221
Rp2222
(I1
(tg10
I00
S'\x16M\xb5\x1a\x03pc\xc0'
p2223
tp2224
bag1
(g2
(I0
tp2225
g4
tp2226
Rp2227
(I1
(tg10
I00
S'\x8c\x16\x93/tlY\xc0'
p2228
tp2229
bag1
(g2
(I0
tp2230
g4
tp2231
Rp2232
(I1
(tg10
I00
S'LY\xf3\x1a\x12\xe2P\xc0'
p2233
tp2234
bag1
(g2
(I0
tp2235
g4
tp2236
Rp2237
(I1
(tg10
I00
S'hc\x80\r2\x19Y\xc0'
p2238
tp2239
bag1
(g2
(I0
tp2240
g4
tp2241
Rp2242
(I1
(tg10
I00
S'\xc2\x9d$\x89Y]Y\xc0'
p2243
tp2244
bag1
(g2
(I0
tp2245
g4
tp2246
Rp2247
(I1
(tg10
I00
S'\xe2\xf3\x9cN\xd3\xc1P\xc0'
p2248
tp2249
bag1
(g2
(I0
tp2250
g4
tp2251
Rp2252
(I1
(tg10
I00
S'\xa5\x06e#\x0bjE\xc0'
p2253
tp2254
bag1
(g2
(I0
tp2255
g4
tp2256
Rp2257
(I1
(tg10
I00
S'\xb8v\xd5\x1a\x82\xb9d\xc0'
p2258
tp2259
bag1
(g2
(I0
tp2260
g4
tp2261
Rp2262
(I1
(tg10
I00
S'.\x81\x08\xecz\xbdn\xc0'
p2263
tp2264
bag1
(g2
(I0
tp2265
g4
tp2266
Rp2267
(I1
(tg10
I00
S'hX\xe1\x87\x94GR\xc0'
p2268
tp2269
bag1
(g2
(I0
tp2270
g4
tp2271
Rp2272
(I1
(tg10
I00
S'\xfdp\x80\x9f\xe8\xda[\xc0'
p2273
tp2274
bag1
(g2
(I0
tp2275
g4
tp2276
Rp2277
(I1
(tg10
I00
S"\xebQ'x1dQ\xc0"
p2278
tp2279
bag1
(g2
(I0
tp2280
g4
tp2281
Rp2282
(I1
(tg10
I00
S'\xb3\x88\x1f\xbd\x88\x14A\xc0'
p2283
tp2284
bag1
(g2
(I0
tp2285
g4
tp2286
Rp2287
(I1
(tg10
I00
S'\x8a\x10\xfa\xccRA:\xc0'
p2288
tp2289
bag1
(g2
(I0
tp2290
g4
tp2291
Rp2292
(I1
(tg10
I00
S'\xcc\x88\x19\xee\xbb\x1e\\\xc0'
p2293
tp2294
bag1
(g2
(I0
tp2295
g4
tp2296
Rp2297
(I1
(tg10
I00
S'\xff0\xc6oO\xea^\xc0'
p2298
tp2299
bag1
(g2
(I0
tp2300
g4
tp2301
Rp2302
(I1
(tg10
I00
S's\xe4E\xd6=\x8cp\xc0'
p2303
tp2304
bag1
(g2
(I0
tp2305
g4
tp2306
Rp2307
(I1
(tg10
I00
S'Yk\xb4\xc2\r\xed?\xc0'
p2308
tp2309
bag1
(g2
(I0
tp2310
g4
tp2311
Rp2312
(I1
(tg10
I00
S'+L\xf3/(\xb8C\xc0'
p2313
tp2314
bag1
(g2
(I0
tp2315
g4
tp2316
Rp2317
(I1
(tg10
I00
S'\x16g\xecx9\x12c\xc0'
p2318
tp2319
bag1
(g2
(I0
tp2320
g4
tp2321
Rp2322
(I1
(tg10
I00
S'{\xc9\xd1\xb1\xdb\x05H\xc0'
p2323
tp2324
bag1
(g2
(I0
tp2325
g4
tp2326
Rp2327
(I1
(tg10
I00
S'P\xecua\xd61I\xc0'
p2328
tp2329
bag1
(g2
(I0
tp2330
g4
tp2331
Rp2332
(I1
(tg10
I00
S'=\x90\xa9Kt\xfd`\xc0'
p2333
tp2334
bag1
(g2
(I0
tp2335
g4
tp2336
Rp2337
(I1
(tg10
I00
S'\xe7\x16!\x0c>5`\xc0'
p2338
tp2339
bag1
(g2
(I0
tp2340
g4
tp2341
Rp2342
(I1
(tg10
I00
S"\xcd\xb6@i'\xb2y\xc0"
p2343
tp2344
bag1
(g2
(I0
tp2345
g4
tp2346
Rp2347
(I1
(tg10
I00
S'\x14(\x90\x02\x03rz\xc0'
p2348
tp2349
bag1
(g2
(I0
tp2350
g4
tp2351
Rp2352
(I1
(tg10
I00
S'Q\xa3B-\x8ewW\xc0'
p2353
tp2354
bag1
(g2
(I0
tp2355
g4
tp2356
Rp2357
(I1
(tg10
I00
S'\xc4c\x11\xcdV\x8ca\xc0'
p2358
tp2359
bag1
(g2
(I0
tp2360
g4
tp2361
Rp2362
(I1
(tg10
I00
S'>E\x1b\xadX\xf5d\xc0'
p2363
tp2364
bag1
(g2
(I0
tp2365
g4
tp2366
Rp2367
(I1
(tg10
I00
S'\x18KK\x94\xb0_r\xc0'
p2368
tp2369
bag1
(g2
(I0
tp2370
g4
tp2371
Rp2372
(I1
(tg10
I00
S'oG!b99N\xc0'
p2373
tp2374
bag1
(g2
(I0
tp2375
g4
tp2376
Rp2377
(I1
(tg10
I00
S'a\x10\x00\xff\x15\xb5f\xc0'
p2378
tp2379
bag1
(g2
(I0
tp2380
g4
tp2381
Rp2382
(I1
(tg10
I00
S'mj\x88\x8753U\xc0'
p2383
tp2384
bag1
(g2
(I0
tp2385
g4
tp2386
Rp2387
(I1
(tg10
I00
S'\x95F\x89\xddZ\xf4S\xc0'
p2388
tp2389
bag1
(g2
(I0
tp2390
g4
tp2391
Rp2392
(I1
(tg10
I00
S'\xc3\xf2,\x13\x15\xc6P\xc0'
p2393
tp2394
bag1
(g2
(I0
tp2395
g4
tp2396
Rp2397
(I1
(tg10
I00
S'\xf5u-/\xcc\xcfT\xc0'
p2398
tp2399
bag1
(g2
(I0
tp2400
g4
tp2401
Rp2402
(I1
(tg10
I00
S'\xe9\xdc\xe4\xf5h\xc3:\xc0'
p2403
tp2404
bag1
(g2
(I0
tp2405
g4
tp2406
Rp2407
(I1
(tg10
I00
S'IZ\xbb\x13\xd9\x189\xc0'
p2408
tp2409
bag1
(g2
(I0
tp2410
g4
tp2411
Rp2412
(I1
(tg10
I00
S'\xe6\xfe]R\xbb\xa5T\xc0'
p2413
tp2414
bag1
(g2
(I0
tp2415
g4
tp2416
Rp2417
(I1
(tg10
I00
S'z\x91\xef\xe3*\xb4F\xc0'
p2418
tp2419
bag1
(g2
(I0
tp2420
g4
tp2421
Rp2422
(I1
(tg10
I00
S'd\xeaP\x98\xfa\x1bT\xc0'
p2423
tp2424
bag1
(g2
(I0
tp2425
g4
tp2426
Rp2427
(I1
(tg10
I00
S'\xb9\xed.\x1a\x94\x90]\xc0'
p2428
tp2429
bag1
(g2
(I0
tp2430
g4
tp2431
Rp2432
(I1
(tg10
I00
S'Z!n\x12ly;\xc0'
p2433
tp2434
bag1
(g2
(I0
tp2435
g4
tp2436
Rp2437
(I1
(tg10
I00
S'N\x17:\xc3\xb0\x83e\xc0'
p2438
tp2439
bag1
(g2
(I0
tp2440
g4
tp2441
Rp2442
(I1
(tg10
I00
S"\xd9\xdf0a'\xc8A\xc0"
p2443
tp2444
bag1
(g2
(I0
tp2445
g4
tp2446
Rp2447
(I1
(tg10
I00
S'\xae\xc3\x9a\xf7\xac\xeaZ\xc0'
p2448
tp2449
bag1
(g2
(I0
tp2450
g4
tp2451
Rp2452
(I1
(tg10
I00
S'\xfc(!\x9d\xd4*X\xc0'
p2453
tp2454
bag1
(g2
(I0
tp2455
g4
tp2456
Rp2457
(I1
(tg10
I00
S'Y#\xa4$D\nS\xc0'
p2458
tp2459
bag1
(g2
(I0
tp2460
g4
tp2461
Rp2462
(I1
(tg10
I00
S'.\x1f\xff\xa6\xfd\xb0F\xc0'
p2463
tp2464
bag1
(g2
(I0
tp2465
g4
tp2466
Rp2467
(I1
(tg10
I00
S'\x8c\x94R\xdb\x16\xf8X\xc0'
p2468
tp2469
bag1
(g2
(I0
tp2470
g4
tp2471
Rp2472
(I1
(tg10
I00
S'\xaa\xe7}\xe5\xd7\nT\xc0'
p2473
tp2474
bag1
(g2
(I0
tp2475
g4
tp2476
Rp2477
(I1
(tg10
I00
S'\x12$E\xfb\xb7L@\xc0'
p2478
tp2479
bag1
(g2
(I0
tp2480
g4
tp2481
Rp2482
(I1
(tg10
I00
S'\xbaA\x9aK\xce\xdfD\xc0'
p2483
tp2484
bag1
(g2
(I0
tp2485
g4
tp2486
Rp2487
(I1
(tg10
I00
S'\xa9\xe1\x87\xb56%Q\xc0'
p2488
tp2489
bag1
(g2
(I0
tp2490
g4
tp2491
Rp2492
(I1
(tg10
I00
S'\xcd\x8eU\x8bA\xb4@\xc0'
p2493
tp2494
bag1
(g2
(I0
tp2495
g4
tp2496
Rp2497
(I1
(tg10
I00
S'Jw\xab\x0f\x82\x9cB\xc0'
p2498
tp2499
bag1
(g2
(I0
tp2500
g4
tp2501
Rp2502
(I1
(tg10
I00
S'\x88g1\xd4]\x13a\xc0'
p2503
tp2504
bag1
(g2
(I0
tp2505
g4
tp2506
Rp2507
(I1
(tg10
I00
S'\xd4\x06r\xb4bXU\xc0'
p2508
tp2509
bag1
(g2
(I0
tp2510
g4
tp2511
Rp2512
(I1
(tg10
I00
S']\x12yK\xab\xa5R\xc0'
p2513
tp2514
bag1
(g2
(I0
tp2515
g4
tp2516
Rp2517
(I1
(tg10
I00
S'"\xe9Y\x91\xa58>\xc0'
p2518
tp2519
bag1
(g2
(I0
tp2520
g4
tp2521
Rp2522
(I1
(tg10
I00
S'\x98\x8d`d\xf1\xe7Y\xc0'
p2523
tp2524
bag1
(g2
(I0
tp2525
g4
tp2526
Rp2527
(I1
(tg10
I00
S'\xaaJ\x0f\xce\xf2FE\xc0'
p2528
tp2529
bag1
(g2
(I0
tp2530
g4
tp2531
Rp2532
(I1
(tg10
I00
S'x\xe3\xe0\x01S\xf6V\xc0'
p2533
tp2534
bag1
(g2
(I0
tp2535
g4
tp2536
Rp2537
(I1
(tg10
I00
S'\xe9u\xa0\xd0\xee\xfdH\xc0'
p2538
tp2539
bag1
(g2
(I0
tp2540
g4
tp2541
Rp2542
(I1
(tg10
I00
S'\x9a\xef\x07\x18\xe03E\xc0'
p2543
tp2544
bag1
(g2
(I0
tp2545
g4
tp2546
Rp2547
(I1
(tg10
I00
S'\xde{\xb6\xfb(\xc57\xc0'
p2548
tp2549
bag1
(g2
(I0
tp2550
g4
tp2551
Rp2552
(I1
(tg10
I00
S'^&\x9e\x10\x07\x07A\xc0'
p2553
tp2554
bag1
(g2
(I0
tp2555
g4
tp2556
Rp2557
(I1
(tg10
I00
S'\x83\xb3Z\xe4\x9cFd\xc0'
p2558
tp2559
bag1
(g2
(I0
tp2560
g4
tp2561
Rp2562
(I1
(tg10
I00
S'1Y.\xf7&iX\xc0'
p2563
tp2564
bag1
(g2
(I0
tp2565
g4
tp2566
Rp2567
(I1
(tg10
I00
S'\x8f\x7f\x94\xdf\t\xf4O\xc0'
p2568
tp2569
bag1
(g2
(I0
tp2570
g4
tp2571
Rp2572
(I1
(tg10
I00
S'\xaf\xa5\x95\xbb%\xc2f\xc0'
p2573
tp2574
bag1
(g2
(I0
tp2575
g4
tp2576
Rp2577
(I1
(tg10
I00
S'\x0f\xf9r\xdc`Og\xc0'
p2578
tp2579
bag1
(g2
(I0
tp2580
g4
tp2581
Rp2582
(I1
(tg10
I00
S'O\x81e\xea\x84\xb9a\xc0'
p2583
tp2584
bag1
(g2
(I0
tp2585
g4
tp2586
Rp2587
(I1
(tg10
I00
S'\x9c-\xd2\x98\xb5dR\xc0'
p2588
tp2589
bag1
(g2
(I0
tp2590
g4
tp2591
Rp2592
(I1
(tg10
I00
S'\xb0\x8d\xfc\xa8?JE\xc0'
p2593
tp2594
bag1
(g2
(I0
tp2595
g4
tp2596
Rp2597
(I1
(tg10
I00
S'8S\x06\xd8\x959`\xc0'
p2598
tp2599
bag1
(g2
(I0
tp2600
g4
tp2601
Rp2602
(I1
(tg10
I00
S'Mj\xd1\x84\x04\x13]\xc0'
p2603
tp2604
bag1
(g2
(I0
tp2605
g4
tp2606
Rp2607
(I1
(tg10
I00
S"$\xf3'\xfd\x80mD\xc0"
p2608
tp2609
bag1
(g2
(I0
tp2610
g4
tp2611
Rp2612
(I1
(tg10
I00
S'\x1e\xf0\xf7\xae\n@a\xc0'
p2613
tp2614
bag1
(g2
(I0
tp2615
g4
tp2616
Rp2617
(I1
(tg10
I00
S'\xcb-6\xc10\xc4p\xc0'
p2618
tp2619
bag1
(g2
(I0
tp2620
g4
tp2621
Rp2622
(I1
(tg10
I00
S'\x0e3=\x10<eP\xc0'
p2623
tp2624
bag1
(g2
(I0
tp2625
g4
tp2626
Rp2627
(I1
(tg10
I00
S'\x02\x1f\x8eKI\x9aR\xc0'
p2628
tp2629
bag1
(g2
(I0
tp2630
g4
tp2631
Rp2632
(I1
(tg10
I00
S'\x94$\xe0\xc9[\xe1j\xc0'
p2633
tp2634
bag1
(g2
(I0
tp2635
g4
tp2636
Rp2637
(I1
(tg10
I00
S'\xd0\xc4\x89\xc9\xda\x14C\xc0'
p2638
tp2639
bag1
(g2
(I0
tp2640
g4
tp2641
Rp2642
(I1
(tg10
I00
S'\xfampE\xb9\x91*\xc0'
p2643
tp2644
bag1
(g2
(I0
tp2645
g4
tp2646
Rp2647
(I1
(tg10
I00
S'2\xe0.83{D\xc0'
p2648
tp2649
bag1
(g2
(I0
tp2650
g4
tp2651
Rp2652
(I1
(tg10
I00
S'ba\xd4\xf1#\xe1d\xc0'
p2653
tp2654
bag1
(g2
(I0
tp2655
g4
tp2656
Rp2657
(I1
(tg10
I00
S'\xef$\x15i\x83\xd4H\xc0'
p2658
tp2659
bag1
(g2
(I0
tp2660
g4
tp2661
Rp2662
(I1
(tg10
I00
S'H\xaf\xe2\xb6\xb2\x10b\xc0'
p2663
tp2664
bag1
(g2
(I0
tp2665
g4
tp2666
Rp2667
(I1
(tg10
I00
S'\x8c\t\xeb\xb9( U\xc0'
p2668
tp2669
bag1
(g2
(I0
tp2670
g4
tp2671
Rp2672
(I1
(tg10
I00
S'O\xa6H`\xe9BD\xc0'
p2673
tp2674
bag1
(g2
(I0
tp2675
g4
tp2676
Rp2677
(I1
(tg10
I00
S'\xeb0\xa5\xd6\x89\x12G\xc0'
p2678
tp2679
bag1
(g2
(I0
tp2680
g4
tp2681
Rp2682
(I1
(tg10
I00
S'p\\\x7f\xbd\xb16E\xc0'
p2683
tp2684
bag1
(g2
(I0
tp2685
g4
tp2686
Rp2687
(I1
(tg10
I00
S'\xe1\xe7\xd9G\x95\x1cU\xc0'
p2688
tp2689
bag1
(g2
(I0
tp2690
g4
tp2691
Rp2692
(I1
(tg10
I00
S'v\xbb\x98B\xe8\xd0D\xc0'
p2693
tp2694
bag1
(g2
(I0
tp2695
g4
tp2696
Rp2697
(I1
(tg10
I00
S'\x8a6S\xdb\x87\x13@\xc0'
p2698
tp2699
bag1
(g2
(I0
tp2700
g4
tp2701
Rp2702
(I1
(tg10
I00
S'\x1d\xbb\xea\x98+\xa9P\xc0'
p2703
tp2704
bag1
(g2
(I0
tp2705
g4
tp2706
Rp2707
(I1
(tg10
I00
S'H(1\xa4rWR\xc0'
p2708
tp2709
bag1
(g2
(I0
tp2710
g4
tp2711
Rp2712
(I1
(tg10
I00
S'\x1c\x9eU\xd0\xednR\xc0'
p2713
tp2714
bag1
(g2
(I0
tp2715
g4
tp2716
Rp2717
(I1
(tg10
I00
S'\xca\x03\xf3(\xa3\xf4[\xc0'
p2718
tp2719
bag1
(g2
(I0
tp2720
g4
tp2721
Rp2722
(I1
(tg10
I00
S'\xb2\xce\x81\xe9\xc6>X\xc0'
p2723
tp2724
bag1
(g2
(I0
tp2725
g4
tp2726
Rp2727
(I1
(tg10
I00
S'\xb1bK\xaa\xe9F5\xc0'
p2728
tp2729
bag1
(g2
(I0
tp2730
g4
tp2731
Rp2732
(I1
(tg10
I00
S'G\xd6-\x03\xd9{Y\xc0'
p2733
tp2734
bag1
(g2
(I0
tp2735
g4
tp2736
Rp2737
(I1
(tg7
(S'i8'
p2738
I0
I1
tp2739
Rp2740
(I3
S'<'
p2741
NNNI-1
I-1
I0
tp2742
bI00
S'\x00\x00\x00\x00\x00\x00\x00\x00'
p2743
tp2744
ba.