(lp0
cnumpy.core.multiarray
_reconstruct
p1
(cnumpy
ndarray
p2
(I0
tp3
S'b'
p4
tp5
Rp6
(I1
(tcnumpy
dtype
p7
(S'f8'
p8
I0
I1
tp9
Rp10
(I3
S'<'
p11
NNNI-1
I-1
I0
tp12
bI00
S'\x1c\xe8P\x08\xd1\xd8`\xc0'
p13
tp14
bag1
(g2
(I0
tp15
g4
tp16
Rp17
(I1
(tg10
I00
S'3\xb6`Uv#@\xc0'
p18
tp19
bag1
(g2
(I0
tp20
g4
tp21
Rp22
(I1
(tg10
I00
S'\x0f\xdf\xaf\x8cd\x8d@\xc0'
p23
tp24
bag1
(g2
(I0
tp25
g4
tp26
Rp27
(I1
(tg10
I00
S'8@Pa\xb7}@\xc0'
p28
tp29
bag1
(g2
(I0
tp30
g4
tp31
Rp32
(I1
(tg10
I00
S'\xeaH\xbe\x7f>\x9d@\xc0'
p33
tp34
bag1
(g2
(I0
tp35
g4
tp36
Rp37
(I1
(tg10
I00
S'\xba\xd1\n\xcc:!f\xc0'
p38
tp39
bag1
(g2
(I0
tp40
g4
tp41
Rp42
(I1
(tg10
I00
S'\xea\xecMO\x84\x90J\xc0'
p43
tp44
bag1
(g2
(I0
tp45
g4
tp46
Rp47
(I1
(tg10
I00
S'\xb5\xa1\x94\x18x\x9f4\xc0'
p48
tp49
bag1
(g2
(I0
tp50
g4
tp51
Rp52
(I1
(tg10
I00
S'2q\x86\xcaX\x91P\xc0'
p53
tp54
bag1
(g2
(I0
tp55
g4
tp56
Rp57
(I1
(tg10
I00
S'\x03\xd0\xe6\x90\x04\xe3E\xc0'
p58
tp59
bag1
(g2
(I0
tp60
g4
tp61
Rp62
(I1
(tg10
I00
S'E\xbc\xfc\xf0\x9e\x1fB\xc0'
p63
tp64
bag1
(g2
(I0
tp65
g4
tp66
Rp67
(I1
(tg10
I00
S'\x12\x90\xb0\x12\x1c\x9fQ\xc0'
p68
tp69
bag1
(g2
(I0
tp70
g4
tp71
Rp72
(I1
(tg10
I00
S'\xa2\xd7b\x1dn\\R\xc0'
p73
tp74
bag1
(g2
(I0
tp75
g4
tp76
Rp77
(I1
(tg10
I00
S'\xf8>\xf9\xf8T\x94=\xc0'
p78
tp79
bag1
(g2
(I0
tp80
g4
tp81
Rp82
(I1
(tg10
I00
S'IH\x031\xe7\xfdD\xc0'
p83
tp84
bag1
(g2
(I0
tp85
g4
tp86
Rp87
(I1
(tg10
I00
S'$\x9b\xa7\xa8\xa7%S\xc0'
p88
tp89
bag1
(g2
(I0
tp90
g4
tp91
Rp92
(I1
(tg10
I00
S'\xa0\xfc/\xc2$\xe4@\xc0'
p93
tp94
bag1
(g2
(I0
tp95
g4
tp96
Rp97
(I1
(tg10
I00
S'\xc0\xe9Z\xb10\xf2M\xc0'
p98
tp99
bag1
(g2
(I0
tp100
g4
tp101
Rp102
(I1
(tg10
I00
S'\x00M\xff}m\xd4N\xc0'
p103
tp104
bag1
(g2
(I0
tp105
g4
tp106
Rp107
(I1
(tg10
I00
S'\x08\x8f\x95]{\xa4W\xc0'
p108
tp109
bag1
(g2
(I0
tp110
g4
tp111
Rp112
(I1
(tg10
I00
S'M\x94\x08y\xac\xd4X\xc0'
p113
tp114
bag1
(g2
(I0
tp115
g4
tp116
Rp117
(I1
(tg10
I00
S'\xddYr\x86#\xb8`\xc0'
p118
tp119
bag1
(g2
(I0
tp120
g4
tp121
Rp122
(I1
(tg10
I00
S'\x9e\xc9;\xd8\xd1\xc5;\xc0'
p123
tp124
bag1
(g2
(I0
tp125
g4
tp126
Rp127
(I1
(tg10
I00
S'\xcb\xe1LX\x13\xae`\xc0'
p128
tp129
bag1
(g2
(I0
tp130
g4
tp131
Rp132
(I1
(tg10
I00
S'db~\xf2\xd7(?\xc0'
p133
tp134
bag1
(g2
(I0
tp135
g4
tp136
Rp137
(I1
(tg10
I00
S'F\xf90"H\x1aJ\xc0'
p138
tp139
bag1
(g2
(I0
tp140
g4
tp141
Rp142
(I1
(tg10
I00
S'\x92^N/n[>\xc0'
p143
tp144
bag1
(g2
(I0
tp145
g4
tp146
Rp147
(I1
(tg10
I00
S'yO\xb9u\r\xa7P\xc0'
p148
tp149
bag1
(g2
(I0
tp150
g4
tp151
Rp152
(I1
(tg10
I00
S'Ad\xea\x9a\xcf[R\xc0'
p153
tp154
bag1
(g2
(I0
tp155
g4
tp156
Rp157
(I1
(tg10
I00
S'%\xae\x01\x00\xf5\xb5K\xc0'
p158
tp159
bag1
(g2
(I0
tp160
g4
tp161
Rp162
(I1
(tg10
I00
S'\x9c\x91l\xa4!\x82S\xc0'
p163
tp164
bag1
(g2
(I0
tp165
g4
tp166
Rp167
(I1
(tg10
I00
S' A\x01\x96\xe5MR\xc0'
p168
tp169
bag1
(g2
(I0
tp170
g4
tp171
Rp172
(I1
(tg10
I00
S'\xbbE\xcf\x16\xf12G\xc0'
p173
tp174
bag1
(g2
(I0
tp175
g4
tp176
Rp177
(I1
(tg10
I00
S'A1\xf6*\xd6ZH\xc0'
p178
tp179
bag1
(g2
(I0
tp180
g4
tp181
Rp182
(I1
(tg10
I00
S'RJ\xb5\x87\xe8@K\xc0'
p183
tp184
bag1
(g2
(I0
tp185
g4
tp186
Rp187
(I1
(tg10
I00
S'\xff_\x01\xc2xob\xc0'
p188
tp189
bag1
(g2
(I0
tp190
g4
tp191
Rp192
(I1
(tg10
I00
S"\r;\xd1\xf3\xa0\x15'\xc0"
p193
tp194
bag1
(g2
(I0
tp195
g4
tp196
Rp197
(I1
(tg10
I00
S'\x0e\x1bb\x1e\x10\x96W\xc0'
p198
tp199
bag1
(g2
(I0
tp200
g4
tp201
Rp202
(I1
(tg10
I00
S'b{f\xaa_\x11L\xc0'
p203
tp204
bag1
(g2
(I0
tp205
g4
tp206
Rp207
(I1
(tg10
I00
S'\x86\xc3\xa8AWQg\xc0'
p208
tp209
bag1
(g2
(I0
tp210
g4
tp211
Rp212
(I1
(tg10
I00
S'\x95\xdc_\xcc\xc9BM\xc0'
p213
tp214
bag1
(g2
(I0
tp215
g4
tp216
Rp217
(I1
(tg10
I00
S',\x10 _\xa9\x84M\xc0'
p218
tp219
bag1
(g2
(I0
tp220
g4
tp221
Rp222
(I1
(tg10
I00
S'\x1a\xb9q\xee\xe1\tZ\xc0'
p223
tp224
bag1
(g2
(I0
tp225
g4
tp226
Rp227
(I1
(tg10
I00
S'\xe4=\xaf\xc5\xa0\x1eP\xc0'
p228
tp229
bag1
(g2
(I0
tp230
g4
tp231
Rp232
(I1
(tg10
I00
S'B\xef\xba\xdb=\xf7D\xc0'
p233
tp234
bag1
(g2
(I0
tp235
g4
tp236
Rp237
(I1
(tg10
I00
S'\xe7 \xba1/\x1e=\xc0'
p238
tp239
bag1
(g2
(I0
tp240
g4
tp241
Rp242
(I1
(tg10
I00
S'\x19\xcbE\x82A\x16S\xc0'
p243
tp244
bag1
(g2
(I0
tp245
g4
tp246
Rp247
(I1
(tg10
I00
S'\xbe\xe62\xb0*\xffK\xc0'
p248
tp249
bag1
(g2
(I0
tp250
g4
tp251
Rp252
(I1
(tg10
I00
S'8pu\xe8\xe2\xa1M\xc0'
p253
tp254
bag1
(g2
(I0
tp255
g4
tp256
Rp257
(I1
(tg10
I00
S'\xf9$h{|{8\xc0'
p258
tp259
bag1
(g2
(I0
tp260
g4
tp261
Rp262
(I1
(tg10
I00
S'E\xdf2\x00\xa5KG\xc0'
p263
tp264
bag1
(g2
(I0
tp265
g4
tp266
Rp267
(I1
(tg10
I00
S't\x0fA\x88s_N\xc0'
p268
tp269
bag1
(g2
(I0
tp270
g4
tp271
Rp272
(I1
(tg10
I00
S'\xdb\xe04?~\xcfc\xc0'
p273
tp274
bag1
(g2
(I0
tp275
g4
tp276
Rp277
(I1
(tg10
I00
S'\x9f\xd3k\x11\x15\x99@\xc0'
p278
tp279
bag1
(g2
(I0
tp280
g4
tp281
Rp282
(I1
(tg10
I00
S'\xca\xeb$\xce\x16/4\xc0'
p283
tp284
bag1
(g2
(I0
tp285
g4
tp286
Rp287
(I1
(tg10
I00
S'\x87\x9b\xce\xf8\xa8Xf\xc0'
p288
tp289
bag1
(g2
(I0
tp290
g4
tp291
Rp292
(I1
(tg10
I00
S'j\xa9\x8aK\x8e9Q\xc0'
p293
tp294
bag1
(g2
(I0
tp295
g4
tp296
Rp297
(I1
(tg10
I00
S'\r\xcd\xc4H\x9a\xb3N\xc0'
p298
tp299
bag1
(g2
(I0
tp300
g4
tp301
Rp302
(I1
(tg10
I00
S'\x1e&\xf20\xb6\xa9O\xc0'
p303
tp304
bag1
(g2
(I0
tp305
g4
tp306
Rp307
(I1
(tg10
I00
S'\x82z=\xc8~(L\xc0'
p308
tp309
bag1
(g2
(I0
tp310
g4
tp311
Rp312
(I1
(tg10
I00
S'\t\x18\xe4bx\x02K\xc0'
p313
tp314
bag1
(g2
(I0
tp315
g4
tp316
Rp317
(I1
(tg10
I00
S'\xa4\x89SQDXR\xc0'
p318
tp319
bag1
(g2
(I0
tp320
g4
tp321
Rp322
(I1
(tg10
I00
S"\x99N\x07'\xacaE\xc0"
p323
tp324
bag1
(g2
(I0
tp325
g4
tp326
Rp327
(I1
(tg10
I00
S'\x07Id\xe9\xa7\x82G\xc0'
p328
tp329
bag1
(g2
(I0
tp330
g4
tp331
Rp332
(I1
(tg10
I00
S'c\xa1<\x19\x91\x95*\xc0'
p333
tp334
bag1
(g2
(I0
tp335
g4
tp336
Rp337
(I1
(tg10
I00
S'\xad\xe0\x9fJ\xba\xdaT\xc0'
p338
tp339
bag1
(g2
(I0
tp340
g4
tp341
Rp342
(I1
(tg10
I00
S'\xb5yY\xc7 \x8eG\xc0'
p343
tp344
bag1
(g2
(I0
tp345
g4
tp346
Rp347
(I1
(tg10
I00
S'\x88!\x87M\xf2\x98R\xc0'
p348
tp349
bag1
(g2
(I0
tp350
g4
tp351
Rp352
(I1
(tg10
I00
S'\x0fW)_!\xef@\xc0'
p353
tp354
bag1
(g2
(I0
tp355
g4
tp356
Rp357
(I1
(tg10
I00
S'\xc5\xdbD\xd8\t\xd44\xc0'
p358
tp359
bag1
(g2
(I0
tp360
g4
tp361
Rp362
(I1
(tg10
I00
S"\xe1\x83\xa4'b\xa9K\xc0"
p363
tp364
bag1
(g2
(I0
tp365
g4
tp366
Rp367
(I1
(tg10
I00
S'\xe6\xf4\x0c{\xe4\xf49\xc0'
p368
tp369
bag1
(g2
(I0
tp370
g4
tp371
Rp372
(I1
(tg10
I00
S'kx\xf0\x8fI\xecS\xc0'
p373
tp374
bag1
(g2
(I0
tp375
g4
tp376
Rp377
(I1
(tg10
I00
S'F%\xa7\x98l\x008\xc0'
p378
tp379
bag1
(g2
(I0
tp380
g4
tp381
Rp382
(I1
(tg10
I00
S'(\x99\x17 \x9a\xb0@\xc0'
p383
tp384
bag1
(g2
(I0
tp385
g4
tp386
Rp387
(I1
(tg10
I00
S'\x06Ip\x1c\xf8\xba?\xc0'
p388
tp389
bag1
(g2
(I0
tp390
g4
tp391
Rp392
(I1
(tg10
I00
S'\x03\xb9\xef=\x93\x80H\xc0'
p393
tp394
bag1
(g2
(I0
tp395
g4
tp396
Rp397
(I1
(tg10
I00
S'\x9cp\xaa\xa7\xf4(O\xc0'
p398
tp399
bag1
(g2
(I0
tp400
g4
tp401
Rp402
(I1
(tg10
I00
S'\xb26\xbb\xd1+\x8aF\xc0'
p403
tp404
bag1
(g2
(I0
tp405
g4
tp406
Rp407
(I1
(tg10
I00
S'\xc2\xfaZq\xaa\x02]\xc0'
p408
tp409
bag1
(g2
(I0
tp410
g4
tp411
Rp412
(I1
(tg10
I00
S'\x17HW\xe0\r\x08C\xc0'
p413
tp414
bag1
(g2
(I0
tp415
g4
tp416
Rp417
(I1
(tg10
I00
S'\xbc\x9b\xedn\xde\xd0W\xc0'
p418
tp419
bag1
(g2
(I0
tp420
g4
tp421
Rp422
(I1
(tg10
I00
S'\x01\xda\x855\xda\xa8\\\xc0'
p423
tp424
bag1
(g2
(I0
tp425
g4
tp426
Rp427
(I1
(tg10
I00
S'!N\x88\x80\xa9vk\xc0'
p428
tp429
bag1
(g2
(I0
tp430
g4
tp431
Rp432
(I1
(tg10
I00
S')\x02\xd1"P\x97V\xc0'
p433
tp434
bag1
(g2
(I0
tp435
g4
tp436
Rp437
(I1
(tg10
I00
S'\xa8o$\x9b5\x0eJ\xc0'
p438
tp439
bag1
(g2
(I0
tp440
g4
tp441
Rp442
(I1
(tg10
I00
S'\xf8\xa6bT\xa7MZ\xc0'
p443
tp444
bag1
(g2
(I0
tp445
g4
tp446
Rp447
(I1
(tg10
I00
S'\x93TQ\x17t\x0bC\xc0'
p448
tp449
bag1
(g2
(I0
tp450
g4
tp451
Rp452
(I1
(tg10
I00
S'\xc3\x1a\x176\xf1\xc6Y\xc0'
p453
tp454
bag1
(g2
(I0
tp455
g4
tp456
Rp457
(I1
(tg10
I00
S'\xea\xaf\xbd;\xd9\xa7Q\xc0'
p458
tp459
bag1
(g2
(I0
tp460
g4
tp461
Rp462
(I1
(tg10
I00
S'\xb9\xe4\xb1-\xd5#[\xc0'
p463
tp464
bag1
(g2
(I0
tp465
g4
tp466
Rp467
(I1
(tg10
I00
S'v\xf4-\xd5n\xf8_\xc0'
p468
tp469
bag1
(g2
(I0
tp470
g4
tp471
Rp472
(I1
(tg10
I00
S'\xce\xdfK\xa4\xff\xc38\xc0'
p473
tp474
bag1
(g2
(I0
tp475
g4
tp476
Rp477
(I1
(tg10
I00
S'\x92\x06\xeck8\xc5P\xc0'
p478
tp479
bag1
(g2
(I0
tp480
g4
tp481
Rp482
(I1
(tg10
I00
S'\xbd\xf9l\xf6\xe8\xb1N\xc0'
p483
tp484
bag1
(g2
(I0
tp485
g4
tp486
Rp487
(I1
(tg10
I00
S'\xd2r\xa0\x80\x94\xc5<\xc0'
p488
tp489
bag1
(g2
(I0
tp490
g4
tp491
Rp492
(I1
(tg10
I00
S'v\n\x93\x18j\x93[\xc0'
p493
tp494
bag1
(g2
(I0
tp495
g4
tp496
Rp497
(I1
(tg10
I00
S'\\\xd5Bv\xda\x91P\xc0'
p498
tp499
bag1
(g2
(I0
tp500
g4
tp501
Rp502
(I1
(tg10
I00
S'\xb4\x9b\x00\xb1\xa9\x11O\xc0'
p503
tp504
bag1
(g2
(I0
tp505
g4
tp506
Rp507
(I1
(tg10
I00
S'.\x82\xbfgi\x89V\xc0'
p508
tp509
bag1
(g2
(I0
tp510
g4
tp511
Rp512
(I1
(tg10
I00
S'8|)-\x9f\tI\xc0'
p513
tp514
bag1
(g2
(I0
tp515
g4
tp516
Rp517
(I1
(tg10
I00
S'XA4\x01v\x10X\xc0'
p518
tp519
bag1
(g2
(I0
tp520
g4
tp521
Rp522
(I1
(tg10
I00
S'\x90\x87F#\xe6\x92A\xc0'
p523
tp524
bag1
(g2
(I0
tp525
g4
tp526
Rp527
(I1
(tg10
I00
S'qAH>\xa8\xad9\xc0'
p528
tp529
bag1
(g2
(I0
tp530
g4
tp531
Rp532
(I1
(tg10
I00
S'\x8c\xa5\xeb6\xeb\xb72\xc0'
p533
tp534
bag1
(g2
(I0
tp535
g4
tp536
Rp537
(I1
(tg10
I00
S'*\x0c%\x94\x8f"S\xc0'
p538
tp539
bag1
(g2
(I0
tp540
g4
tp541
Rp542
(I1
(tg10
I00
S's\xfe7\xa7\xe3\xa4J\xc0'
p543
tp544
bag1
(g2
(I0
tp545
g4
tp546
Rp547
(I1
(tg10
I00
S"\x0f'1\x96\x18\x93V\xc0"
p548
tp549
bag1
(g2
(I0
tp550
g4
tp551
Rp552
(I1
(tg10
I00
S'm\x81\xa9S\x86\xb7I\xc0'
p553
tp554
bag1
(g2
(I0
tp555
g4
tp556
Rp557
(I1
(tg10
I00
S'\xe9^:\xb4D\xefP\xc0'
p558
tp559
bag1
(g2
(I0
tp560
g4
tp561
Rp562
(I1
(tg10
I00
S'\x8d\x90d\xdb\xeb\x84M\xc0'
p563
tp564
bag1
(g2
(I0
tp565
g4
tp566
Rp567
(I1
(tg10
I00
S'\x84\xb2T|\x0f\xc1B\xc0'
p568
tp569
bag1
(g2
(I0
tp570
g4
tp571
Rp572
(I1
(tg10
I00
S'}=\xd7\xa9I\x900\xc0'
p573
tp574
bag1
(g2
(I0
tp575
g4
tp576
Rp577
(I1
(tg10
I00
S'\x82D\xe4,o\xef\\\xc0'
p578
tp579
bag1
(g2
(I0
tp580
g4
tp581
Rp582
(I1
(tg10
I00
S'\x1fx[\xef\xb6Z\\\xc0'
p583
tp584
bag1
(g2
(I0
tp585
g4
tp586
Rp587
(I1
(tg10
I00
S'D\xbf\xb7H\x97\x10K\xc0'
p588
tp589
bag1
(g2
(I0
tp590
g4
tp591
Rp592
(I1
(tg10
I00
S':\xd6\x0b\xaa\xca\xa7M\xc0'
p593
tp594
bag1
(g2
(I0
tp595
g4
tp596
Rp597
(I1
(tg10
I00
S'`.G(\xcemG\xc0'
p598
tp599
bag1
(g2
(I0
tp600
g4
tp601
Rp602
(I1
(tg10
I00
S'7i\x18`7\xb8J\xc0'
p603
tp604
bag1
(g2
(I0
tp605
g4
tp606
Rp607
(I1
(tg10
I00
S'\x94$\x8e\xe6Z\xbf3\xc0'
p608
tp609
bag1
(g2
(I0
tp610
g4
tp611
Rp612
(I1
(tg10
I00
S'>Q\xd5D6\xad?\xc0'
p613
tp614
bag1
(g2
(I0
tp615
g4
tp616
Rp617
(I1
(tg10
I00
S'\x03\x87\x0b|\xed2<\xc0'
p618
tp619
bag1
(g2
(I0
tp620
g4
tp621
Rp622
(I1
(tg10
I00
S'<\xd9>\xa3RGZ\xc0'
p623
tp624
bag1
(g2
(I0
tp625
g4
tp626
Rp627
(I1
(tg10
I00
S'\xb2\x15L\x95\xe5\xb1H\xc0'
p628
tp629
bag1
(g2
(I0
tp630
g4
tp631
Rp632
(I1
(tg10
I00
S'\xc9\x90@\xda\x95D!\xc0'
p633
tp634
bag1
(g2
(I0
tp635
g4
tp636
Rp637
(I1
(tg10
I00
S'6\x04?.\xab\xe4V\xc0'
p638
tp639
bag1
(g2
(I0
tp640
g4
tp641
Rp642
(I1
(tg10
I00
S'K\x14\xe7\x0f\xf2\x0fB\xc0'
p643
tp644
bag1
(g2
(I0
tp645
g4
tp646
Rp647
(I1
(tg10
I00
S'\xe7&&\xebZ)Q\xc0'
p648
tp649
bag1
(g2
(I0
tp650
g4
tp651
Rp652
(I1
(tg10
I00
S'\x0f6\xde\x11\xaf\x1fG\xc0'
p653
tp654
bag1
(g2
(I0
tp655
g4
tp656
Rp657
(I1
(tg10
I00
S'\x17p\xc1\x8d=\xbc8\xc0'
p658
tp659
bag1
(g2
(I0
tp660
g4
tp661
Rp662
(I1
(tg10
I00
S'&](1\x87}A\xc0'
p663
tp664
bag1
(g2
(I0
tp665
g4
tp666
Rp667
(I1
(tg10
I00
S'\xb9sV5\xbf\x9cG\xc0'
p668
tp669
bag1
(g2
(I0
tp670
g4
tp671
Rp672
(I1
(tg10
I00
S'\x8d\xfeL\xd6\xfc=E\xc0'
p673
tp674
bag1
(g2
(I0
tp675
g4
tp676
Rp677
(I1
(tg10
I00
S't\x00\x91\xda\x8c,Q\xc0'
p678
tp679
bag1
(g2
(I0
tp680
g4
tp681
Rp682
(I1
(tg10
I00
S'c\xf8~\x82Z~W\xc0'
p683
tp684
bag1
(g2
(I0
tp685
g4
tp686
Rp687
(I1
(tg10
I00
S'+v\xd8\x0e\x9cdT\xc0'
p688
tp689
bag1
(g2
(I0
tp690
g4
tp691
Rp692
(I1
(tg10
I00
S'\x8c^\xeb\xf2\x95\x9b_\xc0'
p693
tp694
bag1
(g2
(I0
tp695
g4
tp696
Rp697
(I1
(tg10
I00
S'\xa5W\xe1)\x873%\xc0'
p698
tp699
bag1
(g2
(I0
tp700
g4
tp701
Rp702
(I1
(tg10
I00
S']\xf7.e\xb2\x93N\xc0'
p703
tp704
bag1
(g2
(I0
tp705
g4
tp706
Rp707
(I1
(tg10
I00
S'k|H\xb2\xbc\xe24\xc0'
p708
tp709
bag1
(g2
(I0
tp710
g4
tp711
Rp712
(I1
(tg10
I00
S'7;\x04B\xaf\x96S\xc0'
p713
tp714
bag1
(g2
(I0
tp715
g4
tp716
Rp717
(I1
(tg10
I00
S'\x96z\x05&Q\xc5/\xc0'
p718
tp719
bag1
(g2
(I0
tp720
g4
tp721
Rp722
(I1
(tg10
I00
S'\xf8\xed\xfc\x12\xe7\x89A\xc0'
p723
tp724
bag1
(g2
(I0
tp725
g4
tp726
Rp727
(I1
(tg10
I00
S'\xc2`>q\xb7\xd7S\xc0'
p728
tp729
bag1
(g2
(I0
tp730
g4
tp731
Rp732
(I1
(tg10
I00
S'\xb2~\xfeh/\x90B\xc0'
p733
tp734
bag1
(g2
(I0
tp735
g4
tp736
Rp737
(I1
(tg10
I00
S'\x88/\x97\x88\xabYM\xc0'
p738
tp739
bag1
(g2
(I0
tp740
g4
tp741
Rp742
(I1
(tg10
I00
S'k#\xdf\xea\xebdQ\xc0'
p743
tp744
bag1
(g2
(I0
tp745
g4
tp746
Rp747
(I1
(tg10
I00
S'Q\xa1\xaa\xcd|\xab<\xc0'
p748
tp749
bag1
(g2
(I0
tp750
g4
tp751
Rp752
(I1
(tg10
I00
S'\x1f\xebLsN\x00;\xc0'
p753
tp754
bag1
(g2
(I0
tp755
g4
tp756
Rp757
(I1
(tg10
I00
S'\xe5\xa27P^}T\xc0'
p758
tp759
bag1
(g2
(I0
tp760
g4
tp761
Rp762
(I1
(tg10
I00
S'\x94\x87h7v\x84H\xc0'
p763
tp764
bag1
(g2
(I0
tp765
g4
tp766
Rp767
(I1
(tg10
I00
S':\\\xc6\xac\x8e\x938\xc0'
p768
tp769
bag1
(g2
(I0
tp770
g4
tp771
Rp772
(I1
(tg10
I00
S'\xd0\xf2\x0c;#\xb6K\xc0'
p773
tp774
bag1
(g2
(I0
tp775
g4
tp776
Rp777
(I1
(tg10
I00
S'\x88z\xeb\xbc\xf7j>\xc0'
p778
tp779
bag1
(g2
(I0
tp780
g4
tp781
Rp782
(I1
(tg10
I00
S'\x03\xf1\x85QU\x8cL\xc0'
p783
tp784
bag1
(g2
(I0
tp785
g4
tp786
Rp787
(I1
(tg10
I00
S'd/\xb3\xf2\xd0\xdb@\xc0'
p788
tp789
bag1
(g2
(I0
tp790
g4
tp791
Rp792
(I1
(tg10
I00
S'\xa4\x92\x9b=\xe8vP\xc0'
p793
tp794
bag1
(g2
(I0
tp795
g4
tp796
Rp797
(I1
(tg10
I00
S'\xae\xa7\x17\xb2SaM\xc0'
p798
tp799
bag1
(g2
(I0
tp800
g4
tp801
Rp802
(I1
(tg10
I00
S'\xf0R@\xca\x9f)L\xc0'
p803
tp804
bag1
(g2
(I0
tp805
g4
tp806
Rp807
(I1
(tg10
I00
S'\xda\xc0\xad4\x9c\xe6X\xc0'
p808
tp809
bag1
(g2
(I0
tp810
g4
tp811
Rp812
(I1
(tg10
I00
S'\x95/W\x04\xd4[D\xc0'
p813
tp814
bag1
(g2
(I0
tp815
g4
tp816
Rp817
(I1
(tg10
I00
S'05\xd7\xcdk\xc6P\xc0'
p818
tp819
bag1
(g2
(I0
tp820
g4
tp821
Rp822
(I1
(tg10
I00
S'\xbc.g\xc1G"B\xc0'
p823
tp824
bag1
(g2
(I0
tp825
g4
tp826
Rp827
(I1
(tg10
I00
S'\x94z\n\xb2M[6\xc0'
p828
tp829
bag1
(g2
(I0
tp830
g4
tp831
Rp832
(I1
(tg10
I00
S'\xde\x1b&\xd5Z\xfd!\xc0'
p833
tp834
bag1
(g2
(I0
tp835
g4
tp836
Rp837
(I1
(tg10
I00
S'\xaf\xachQ\t\xc2S\xc0'
p838
tp839
bag1
(g2
(I0
tp840
g4
tp841
Rp842
(I1
(tg10
I00
S'V\x91\x87ez\xa4@\xc0'
p843
tp844
bag1
(g2
(I0
tp845
g4
tp846
Rp847
(I1
(tg10
I00
S'\xbcN\xf7\xc5\xf8\xe4H\xc0'
p848
tp849
bag1
(g2
(I0
tp850
g4
tp851
Rp852
(I1
(tg10
I00
S'O\xb8\xeb|\x11\xe0*\xc0'
p853
tp854
bag1
(g2
(I0
tp855
g4
tp856
Rp857
(I1
(tg10
I00
S'b@\xbd\x9a\x93\xce`\xc0'
p858
tp859
bag1
(g2
(I0
tp860
g4
tp861
Rp862
(I1
(tg10
I00
S'\x0b\xcfi\x11k\xe0E\xc0'
p863
tp864
bag1
(g2
(I0
tp865
g4
tp866
Rp867
(I1
(tg10
I00
S'4\xa7+\xca\x02:<\xc0'
p868
tp869
bag1
(g2
(I0
tp870
g4
tp871
Rp872
(I1
(tg10
I00
S'\xa5\x85\xef)J\x0bJ\xc0'
p873
tp874
bag1
(g2
(I0
tp875
g4
tp876
Rp877
(I1
(tg10
I00
S'\x94\xe3r\x9e\xdf\xb0f\xc0'
p878
tp879
bag1
(g2
(I0
tp880
g4
tp881
Rp882
(I1
(tg10
I00
S'\x89\xb9.\xa1:"D\xc0'
p883
tp884
bag1
(g2
(I0
tp885
g4
tp886
Rp887
(I1
(tg10
I00
S'F\xf3\xd9\xd4\xf3vJ\xc0'
p888
tp889
bag1
(g2
(I0
tp890
g4
tp891
Rp892
(I1
(tg10
I00
S',U\xbd\xbb\xdc\x12:\xc0'
p893
tp894
bag1
(g2
(I0
tp895
g4
tp896
Rp897
(I1
(tg10
I00
S'\xd9\xa5\xb7\xddh}-\xc0'
p898
tp899
bag1
(g2
(I0
tp900
g4
tp901
Rp902
(I1
(tg10
I00
S'=\x8a\x0f\xd6##=\xc0'
p903
tp904
bag1
(g2
(I0
tp905
g4
tp906
Rp907
(I1
(tg10
I00
S'\xcb\xfc\xb4\x13i\xd7P\xc0'
p908
tp909
bag1
(g2
(I0
tp910
g4
tp911
Rp912
(I1
(tg10
I00
S'\xb29q\x86\x90\x842\xc0'
p913
tp914
bag1
(g2
(I0
tp915
g4
tp916
Rp917
(I1
(tg10
I00
S'\xc6\xec\xcf\xe9j-Z\xc0'
p918
tp919
bag1
(g2
(I0
tp920
g4
tp921
Rp922
(I1
(tg10
I00
S'\x9a2\x84^\x8b\x0eZ\xc0'
p923
tp924
bag1
(g2
(I0
tp925
g4
tp926
Rp927
(I1
(tg10
I00
S'm\xc2O\xfa\xffGO\xc0'
p928
tp929
bag1
(g2
(I0
tp930
g4
tp931
Rp932
(I1
(tg10
I00
S'\x81\xef6\x14ilW\xc0'
p933
tp934
bag1
(g2
(I0
tp935
g4
tp936
Rp937
(I1
(tg10
I00
S'\xc4\xfbe\xa3\xde\xb7@\xc0'
p938
tp939
bag1
(g2
(I0
tp940
g4
tp941
Rp942
(I1
(tg10
I00
S'\xc4\x97E\xa3\x10\x7fe\xc0'
p943
tp944
bag1
(g2
(I0
tp945
g4
tp946
Rp947
(I1
(tg10
I00
S'G\xc5y\xd1\n.G\xc0'
p948
tp949
bag1
(g2
(I0
tp950
g4
tp951
Rp952
(I1
(tg10
I00
S'\xff +\xb9^\xaf9\xc0'
p953
tp954
bag1
(g2
(I0
tp955
g4
tp956
Rp957
(I1
(tg10
I00
S'\x02Z\xf35\xbc W\xc0'
p958
tp959
bag1
(g2
(I0
tp960
g4
tp961
Rp962
(I1
(tg10
I00
S'\tO\x8f\xabj\x83D\xc0'
p963
tp964
bag1
(g2
(I0
tp965
g4
tp966
Rp967
(I1
(tg10
I00
S'\xa7\xa5\xf1\xb7\xfb\xb9A\xc0'
p968
tp969
bag1
(g2
(I0
tp970
g4
tp971
Rp972
(I1
(tg10
I00
S'\xb2d\x07\xaeD\xf7V\xc0'
p973
tp974
bag1
(g2
(I0
tp975
g4
tp976
Rp977
(I1
(tg10
I00
S'p\x8b\x98\xe9\xf5\x85J\xc0'
p978
tp979
bag1
(g2
(I0
tp980
g4
tp981
Rp982
(I1
(tg10
I00
S'\x7f^\xe3\xc9\xd9`c\xc0'
p983
tp984
bag1
(g2
(I0
tp985
g4
tp986
Rp987
(I1
(tg10
I00
S'\xeas\x9c\x8a\xa9\x80:\xc0'
p988
tp989
bag1
(g2
(I0
tp990
g4
tp991
Rp992
(I1
(tg10
I00
S'\xe78fYAUf\xc0'
p993
tp994
bag1
(g2
(I0
tp995
g4
tp996
Rp997
(I1
(tg10
I00
S'\xb4}\xe0Fy\xddK\xc0'
p998
tp999
bag1
(g2
(I0
tp1000
g4
tp1001
Rp1002
(I1
(tg10
I00
S'\x86"\xd3oX\xd8G\xc0'
p1003
tp1004
bag1
(g2
(I0
tp1005
g4
tp1006
Rp1007
(I1
(tg10
I00
S'lQ\x1a8\xf4\x14P\xc0'
p1008
tp1009
bag1
(g2
(I0
tp1010
g4
tp1011
Rp1012
(I1
(tg10
I00
S'i\xa9\x046\xbd\xf4W\xc0'
p1013
tp1014
bag1
(g2
(I0
tp1015
g4
tp1016
Rp1017
(I1
(tg10
I00
S'\xe96X\x86D\xdeN\xc0'
p1018
tp1019
bag1
(g2
(I0
tp1020
g4
tp1021
Rp1022
(I1
(tg10
I00
S'\x14\xd8\x7f&\n\x0e2\xc0'
p1023
tp1024
bag1
(g2
(I0
tp1025
g4
tp1026
Rp1027
(I1
(tg10
I00
S'\xfe\xcfU\xeb\xbf\xa81\xc0'
p1028
tp1029
bag1
(g2
(I0
tp1030
g4
tp1031
Rp1032
(I1
(tg10
I00
S'\xf65\x83\xc0\xa1\xd9H\xc0'
p1033
tp1034
bag1
(g2
(I0
tp1035
g4
tp1036
Rp1037
(I1
(tg10
I00
S'\x88\x12\x94\xb5\x83\x952\xc0'
p1038
tp1039
bag1
(g2
(I0
tp1040
g4
tp1041
Rp1042
(I1
(tg10
I00
S'\xcc/H>M]^\xc0'
p1043
tp1044
bag1
(g2
(I0
tp1045
g4
tp1046
Rp1047
(I1
(tg10
I00
S'\xa2\xb4\xc7\xa6\x99\xb35\xc0'
p1048
tp1049
bag1
(g2
(I0
tp1050
g4
tp1051
Rp1052
(I1
(tg10
I00
S'a\x1f%D\xa2\x12K\xc0'
p1053
tp1054
bag1
(g2
(I0
tp1055
g4
tp1056
Rp1057
(I1
(tg10
I00
S'i\x90\xf7\xc5v\x04A\xc0'
p1058
tp1059
bag1
(g2
(I0
tp1060
g4
tp1061
Rp1062
(I1
(tg10
I00
S';\xc8\xb3\xceNz@\xc0'
p1063
tp1064
bag1
(g2
(I0
tp1065
g4
tp1066
Rp1067
(I1
(tg10
I00
S'\xa8\x8a\xe4\xa9/\x82P\xc0'
p1068
tp1069
bag1
(g2
(I0
tp1070
g4
tp1071
Rp1072
(I1
(tg10
I00
S'\xf0B\x05\xea\x87\r`\xc0'
p1073
tp1074
bag1
(g2
(I0
tp1075
g4
tp1076
Rp1077
(I1
(tg10
I00
S'1{p\xfa\xc4\x80^\xc0'
p1078
tp1079
bag1
(g2
(I0
tp1080
g4
tp1081
Rp1082
(I1
(tg10
I00
S"'\x95<\x80\x00vS\xc0"
p1083
tp1084
bag1
(g2
(I0
tp1085
g4
tp1086
Rp1087
(I1
(tg10
I00
S'^?R\xa4\xb4FP\xc0'
p1088
tp1089
bag1
(g2
(I0
tp1090
g4
tp1091
Rp1092
(I1
(tg10
I00
S'\xd2f(\xd7\xad\xa6`\xc0'
p1093
tp1094
bag1
(g2
(I0
tp1095
g4
tp1096
Rp1097
(I1
(tg10
I00
S'G\xc5\xb7\xcd\x1fMQ\xc0'
p1098
tp1099
bag1
(g2
(I0
tp1100
g4
tp1101
Rp1102
(I1
(tg10
I00
S'\xa0\x06E\xcd\x1e\xe7Q\xc0'
p1103
tp1104
bag1
(g2
(I0
tp1105
g4
tp1106
Rp1107
(I1
(tg10
I00
S'\xbb\xe2F\x89pf@\xc0'
p1108
tp1109
bag1
(g2
(I0
tp1110
g4
tp1111
Rp1112
(I1
(tg10
I00
S'\xf8\xc47}\x92\xd6F\xc0'
p1113
tp1114
bag1
(g2
(I0
tp1115
g4
tp1116
Rp1117
(I1
(tg10
I00
S'O\xef\x8d\xe4L\x96H\xc0'
p1118
tp1119
bag1
(g2
(I0
tp1120
g4
tp1121
Rp1122
(I1
(tg10
I00
S'K\xcfrM\xb3\tU\xc0'
p1123
tp1124
bag1
(g2
(I0
tp1125
g4
tp1126
Rp1127
(I1
(tg10
I00
S'\xc1%\xbf4\xe2\x95(\xc0'
p1128
tp1129
bag1
(g2
(I0
tp1130
g4
tp1131
Rp1132
(I1
(tg10
I00
S'?\xb4E\xea\x1eOP\xc0'
p1133
tp1134
bag1
(g2
(I0
tp1135
g4
tp1136
Rp1137
(I1
(tg10
I00
S'~\xcc.H\xc8 L\xc0'
p1138
tp1139
bag1
(g2
(I0
tp1140
g4
tp1141
Rp1142
(I1
(tg10
I00
S'\x95\xab@X\x9f\xac<\xc0'
p1143
tp1144
bag1
(g2
(I0
tp1145
g4
tp1146
Rp1147
(I1
(tg10
I00
S'\x06\xc6(\xbe\xe5\x1aC\xc0'
p1148
tp1149
bag1
(g2
(I0
tp1150
g4
tp1151
Rp1152
(I1
(tg10
I00
S'm>\xd4\td\xfc^\xc0'
p1153
tp1154
bag1
(g2
(I0
tp1155
g4
tp1156
Rp1157
(I1
(tg10
I00
S"\xdaL<be\x15'\xc0"
p1158
tp1159
bag1
(g2
(I0
tp1160
g4
tp1161
Rp1162
(I1
(tg10
I00
S'p\x1aR=qjD\xc0'
p1163
tp1164
bag1
(g2
(I0
tp1165
g4
tp1166
Rp1167
(I1
(tg10
I00
S'\xd2\x18X=@\xf29\xc0'
p1168
tp1169
bag1
(g2
(I0
tp1170
g4
tp1171
Rp1172
(I1
(tg10
I00
S'\xbb\x9e\x87\xea0\x85R\xc0'
p1173
tp1174
bag1
(g2
(I0
tp1175
g4
tp1176
Rp1177
(I1
(tg10
I00
S'\xa5L{\xfe\x00\xf63\xc0'
p1178
tp1179
bag1
(g2
(I0
tp1180
g4
tp1181
Rp1182
(I1
(tg10
I00
S'\xda\x97\xaeh\x1a\xb5U\xc0'
p1183
tp1184
bag1
(g2
(I0
tp1185
g4
tp1186
Rp1187
(I1
(tg10
I00
S'\xc5\xd4\xa3\xae\x07XL\xc0'
p1188
tp1189
bag1
(g2
(I0
tp1190
g4
tp1191
Rp1192
(I1
(tg10
I00
S'\xf4\x15\x12p\x80\xa2i\xc0'
p1193
tp1194
bag1
(g2
(I0
tp1195
g4
tp1196
Rp1197
(I1
(tg10
I00
S'\xa8\xe3\xfd\x00\xa6\x1eI\xc0'
p1198
tp1199
bag1
(g2
(I0
tp1200
g4
tp1201
Rp1202
(I1
(tg10
I00
S'NC?\xdc\xe3\xf2A\xc0'
p1203
tp1204
bag1
(g2
(I0
tp1205
g4
tp1206
Rp1207
(I1
(tg10
I00
S'hK\x07\xc9\x1dfI\xc0'
p1208
tp1209
bag1
(g2
(I0
tp1210
g4
tp1211
Rp1212
(I1
(tg10
I00
S'\xf5\xbd\x9c{\xbb\xc4c\xc0'
p1213
tp1214
bag1
(g2
(I0
tp1215
g4
tp1216
Rp1217
(I1
(tg10
I00
S'\xa2]\xd5\x12\xb9\x03B\xc0'
p1218
tp1219
bag1
(g2
(I0
tp1220
g4
tp1221
Rp1222
(I1
(tg10
I00
S'\x8bZ\xf7\xe7\xe631\xc0'
p1223
tp1224
bag1
(g2
(I0
tp1225
g4
tp1226
Rp1227
(I1
(tg10
I00
S'&\x9f\x1e&E\xb0N\xc0'
p1228
tp1229
bag1
(g2
(I0
tp1230
g4
tp1231
Rp1232
(I1
(tg10
I00
S'\xc3\xc2\xb1jJgT\xc0'
p1233
tp1234
bag1
(g2
(I0
tp1235
g4
tp1236
Rp1237
(I1
(tg10
I00
S'\x82\xf8\x8fk\xd7EM\xc0'
p1238
tp1239
bag1
(g2
(I0
tp1240
g4
tp1241
Rp1242
(I1
(tg10
I00
S'\xf3\x9bK\x11\x9c\xbd@\xc0'
p1243
tp1244
bag1
(g2
(I0
tp1245
g4
tp1246
Rp1247
(I1
(tg10
I00
S'>rk\x89\xdbl7\xc0'
p1248
tp1249
bag1
(g2
(I0
tp1250
g4
tp1251
Rp1252
(I1
(tg10
I00
S'e+\xb5c\x00qU\xc0'
p1253
tp1254
bag1
(g2
(I0
tp1255
g4
tp1256
Rp1257
(I1
(tg10
I00
S'%\xfb%\x90\x16\x15R\xc0'
p1258
tp1259
bag1
(g2
(I0
tp1260
g4
tp1261
Rp1262
(I1
(tg10
I00
S'GN\x99D\xe9\x07T\xc0'
p1263
tp1264
bag1
(g2
(I0
tp1265
g4
tp1266
Rp1267
(I1
(tg10
I00
S'\x8c$a\x8f`\xafC\xc0'
p1268
tp1269
bag1
(g2
(I0
tp1270
g4
tp1271
Rp1272
(I1
(tg10
I00
S'\x91\xb7\xa3\xa7U[H\xc0'
p1273
tp1274
bag1
(g2
(I0
tp1275
g4
tp1276
Rp1277
(I1
(tg10
I00
S'D\x15/V\x05A;\xc0'
p1278
tp1279
bag1
(g2
(I0
tp1280
g4
tp1281
Rp1282
(I1
(tg10
I00
S'[\x80\xbczZ\xc0R\xc0'
p1283
tp1284
bag1
(g2
(I0
tp1285
g4
tp1286
Rp1287
(I1
(tg10
I00
S'\xa6A}\xead\xa5Q\xc0'
p1288
tp1289
bag1
(g2
(I0
tp1290
g4
tp1291
Rp1292
(I1
(tg10
I00
S'\xb5\xebP8\xed\xbbY\xc0'
p1293
tp1294
bag1
(g2
(I0
tp1295
g4
tp1296
Rp1297
(I1
(tg10
I00
S'\x88\xa6\xdd\x8b<3J\xc0'
p1298
tp1299
bag1
(g2
(I0
tp1300
g4
tp1301
Rp1302
(I1
(tg10
I00
S'"d\x1c@\xec\xaf2\xc0'
p1303
tp1304
bag1
(g2
(I0
tp1305
g4
tp1306
Rp1307
(I1
(tg10
I00
S'6\xa2c\x19\n\xbdR\xc0'
p1308
tp1309
bag1
(g2
(I0
tp1310
g4
tp1311
Rp1312
(I1
(tg10
I00
S'tM>\x89%\x1cK\xc0'
p1313
tp1314
bag1
(g2
(I0
tp1315
g4
tp1316
Rp1317
(I1
(tg10
I00
S'\xb4\x16\xfd\xa0\x8b\x08!\xc0'
p1318
tp1319
bag1
(g2
(I0
tp1320
g4
tp1321
Rp1322
(I1
(tg10
I00
S'\xeey:\xbdYZM\xc0'
p1323
tp1324
bag1
(g2
(I0
tp1325
g4
tp1326
Rp1327
(I1
(tg10
I00
S'\xdaM\x08?\xaf\xbfR\xc0'
p1328
tp1329
bag1
(g2
(I0
tp1330
g4
tp1331
Rp1332
(I1
(tg10
I00
S'\xf0\x03o1\xdf\xf1R\xc0'
p1333
tp1334
bag1
(g2
(I0
tp1335
g4
tp1336
Rp1337
(I1
(tg10
I00
S'\xbe\xae%{\xaaXH\xc0'
p1338
tp1339
bag1
(g2
(I0
tp1340
g4
tp1341
Rp1342
(I1
(tg10
I00
S'\xbdx\x1d2\x1f\xa7Q\xc0'
p1343
tp1344
bag1
(g2
(I0
tp1345
g4
tp1346
Rp1347
(I1
(tg10
I00
S'{\x11N\x8f\x10QD\xc0'
p1348
tp1349
bag1
(g2
(I0
tp1350
g4
tp1351
Rp1352
(I1
(tg10
I00
S'\xd0\xdd\xf4}3\xabd\xc0'
p1353
tp1354
bag1
(g2
(I0
tp1355
g4
tp1356
Rp1357
(I1
(tg10
I00
S'\xca#\x87>9\xa5K\xc0'
p1358
tp1359
bag1
(g2
(I0
tp1360
g4
tp1361
Rp1362
(I1
(tg10
I00
S'\x87}Y*e 8\xc0'
p1363
tp1364
bag1
(g2
(I0
tp1365
g4
tp1366
Rp1367
(I1
(tg10
I00
S'\xe80\xf3\xf1yH9\xc0'
p1368
tp1369
bag1
(g2
(I0
tp1370
g4
tp1371
Rp1372
(I1
(tg10
I00
S'2\xf4\xc6\xa1\xa0\xc35\xc0'
p1373
tp1374
bag1
(g2
(I0
tp1375
g4
tp1376
Rp1377
(I1
(tg10
I00
S'\xe1\xde\x89X+\x98P\xc0'
p1378
tp1379
bag1
(g2
(I0
tp1380
g4
tp1381
Rp1382
(I1
(tg10
I00
S'\x9cm\xd2\xbc\xe5\xc5G\xc0'
p1383
tp1384
bag1
(g2
(I0
tp1385
g4
tp1386
Rp1387
(I1
(tg10
I00
S'Rlx\xe7r\x87D\xc0'
p1388
tp1389
bag1
(g2
(I0
tp1390
g4
tp1391
Rp1392
(I1
(tg10
I00
S"\xcf\x1dd'\x85\x86Q\xc0"
p1393
tp1394
bag1
(g2
(I0
tp1395
g4
tp1396
Rp1397
(I1
(tg10
I00
S'\x84X\xa7\x9c\x15;U\xc0'
p1398
tp1399
bag1
(g2
(I0
tp1400
g4
tp1401
Rp1402
(I1
(tg10
I00
S'3\xeb\x8d}/i7\xc0'
p1403
tp1404
bag1
(g2
(I0
tp1405
g4
tp1406
Rp1407
(I1
(tg10
I00
S'G\xc9\xcc\xb9d0<\xc0'
p1408
tp1409
bag1
(g2
(I0
tp1410
g4
tp1411
Rp1412
(I1
(tg10
I00
S'$\x18U]\xff\xa1P\xc0'
p1413
tp1414
bag1
(g2
(I0
tp1415
g4
tp1416
Rp1417
(I1
(tg10
I00
S'I6\xbcT?5T\xc0'
p1418
tp1419
bag1
(g2
(I0
tp1420
g4
tp1421
Rp1422
(I1
(tg10
I00
S'\xa0\xf2o,\x14\x866\xc0'
p1423
tp1424
bag1
(g2
(I0
tp1425
g4
tp1426
Rp1427
(I1
(tg10
I00
S'e\xae\xdag\xe2\xb9)\xc0'
p1428
tp1429
bag1
(g2
(I0
tp1430
g4
tp1431
Rp1432
(I1
(tg10
I00
S'\x93\xcb\xe6\x81\xf2\xfe(\xc0'
p1433
tp1434
bag1
(g2
(I0
tp1435
g4
tp1436
Rp1437
(I1
(tg10
I00
S'i\xb7A\x02\xea\x11;\xc0'
p1438
tp1439
bag1
(g2
(I0
tp1440
g4
tp1441
Rp1442
(I1
(tg10
I00
S'\xddn\x11\x1b9\x1dI\xc0'
p1443
tp1444
bag1
(g2
(I0
tp1445
g4
tp1446
Rp1447
(I1
(tg10
I00
S'\x8e\xa1\xf5/\xdbIS\xc0'
p1448
tp1449
bag1
(g2
(I0
tp1450
g4
tp1451
Rp1452
(I1
(tg10
I00
S'\x18h\xf0\x13\xe4\xceI\xc0'
p1453
tp1454
bag1
(g2
(I0
tp1455
g4
tp1456
Rp1457
(I1
(tg10
I00
S'\xbfn\x95.\x92\x89P\xc0'
p1458
tp1459
bag1
(g2
(I0
tp1460
g4
tp1461
Rp1462
(I1
(tg10
I00
S'\xf5\xd1\x8dcX\xe9@\xc0'
p1463
tp1464
bag1
(g2
(I0
tp1465
g4
tp1466
Rp1467
(I1
(tg10
I00
S':\x9e\x15\xa8[\x83I\xc0'
p1468
tp1469
bag1
(g2
(I0
tp1470
g4
tp1471
Rp1472
(I1
(tg10
I00
S"xH\x02\xfev\x8d'\xc0"
p1473
tp1474
bag1
(g2
(I0
tp1475
g4
tp1476
Rp1477
(I1
(tg10
I00
S'\xe9I\x08]\xde3J\xc0'
p1478
tp1479
bag1
(g2
(I0
tp1480
g4
tp1481
Rp1482
(I1
(tg10
I00
S'\x90\xd6\x99\xban\xa4P\xc0'
p1483
tp1484
bag1
(g2
(I0
tp1485
g4
tp1486
Rp1487
(I1
(tg10
I00
S'\x84l\xc5\xc3\x19XN\xc0'
p1488
tp1489
bag1
(g2
(I0
tp1490
g4
tp1491
Rp1492
(I1
(tg10
I00
S'\x19za\x0b]\x19L\xc0'
p1493
tp1494
bag1
(g2
(I0
tp1495
g4
tp1496
Rp1497
(I1
(tg10
I00
S'\x08\x07nxuPX\xc0'
p1498
tp1499
bag1
(g2
(I0
tp1500
g4
tp1501
Rp1502
(I1
(tg10
I00
S'[\xfa\x9c+|\x03`\xc0'
p1503
tp1504
bag1
(g2
(I0
tp1505
g4
tp1506
Rp1507
(I1
(tg10
I00
S'E\xd8\x0fl\xfc\xa2Z\xc0'
p1508
tp1509
bag1
(g2
(I0
tp1510
g4
tp1511
Rp1512
(I1
(tg10
I00
S'\xc54\x9d#\x0e\xbfE\xc0'
p1513
tp1514
bag1
(g2
(I0
tp1515
g4
tp1516
Rp1517
(I1
(tg10
I00
S'\xe6\x14:\xb9\x1b9K\xc0'
p1518
tp1519
bag1
(g2
(I0
tp1520
g4
tp1521
Rp1522
(I1
(tg10
I00
S'\x83D\xd6\x1e~\x8aH\xc0'
p1523
tp1524
bag1
(g2
(I0
tp1525
g4
tp1526
Rp1527
(I1
(tg10
I00
S'9\xcepL\xa1\xd3E\xc0'
p1528
tp1529
bag1
(g2
(I0
tp1530
g4
tp1531
Rp1532
(I1
(tg10
I00
S'vg~+HD<\xc0'
p1533
tp1534
bag1
(g2
(I0
tp1535
g4
tp1536
Rp1537
(I1
(tg10
I00
S'v\xab\xe8b\xaf?0\xc0'
p1538
tp1539
bag1
(g2
(I0
tp1540
g4
tp1541
Rp1542
(I1
(tg10
I00
S'\x0fo\xa3\xe3{\xf7=\xc0'
p1543
tp1544
bag1
(g2
(I0
tp1545
g4
tp1546
Rp1547
(I1
(tg10
I00
S'\x92\xefh\xda\xf9\xe1I\xc0'
p1548
tp1549
bag1
(g2
(I0
tp1550
g4
tp1551
Rp1552
(I1
(tg10
I00
S'\x08\x9c\x8c\xd0\xaf\x0eJ\xc0'
p1553
tp1554
bag1
(g2
(I0
tp1555
g4
tp1556
Rp1557
(I1
(tg10
I00
S'\x96a3m\x87KE\xc0'
p1558
tp1559
bag1
(g2
(I0
tp1560
g4
tp1561
Rp1562
(I1
(tg10
I00
S'\xed\xe4\xd0\x7f\xbe\x8dH\xc0'
p1563
tp1564
bag1
(g2
(I0
tp1565
g4
tp1566
Rp1567
(I1
(tg10
I00
S'\xba\xf6\xa4\xe5\x82\xc5N\xc0'
p1568
tp1569
bag1
(g2
(I0
tp1570
g4
tp1571
Rp1572
(I1
(tg10
I00
S'=$\x9f\x1b \xe1Q\xc0'
p1573
tp1574
bag1
(g2
(I0
tp1575
g4
tp1576
Rp1577
(I1
(tg10
I00
S',\xa5k\x00]\x11L\xc0'
p1578
tp1579
bag1
(g2
(I0
tp1580
g4
tp1581
Rp1582
(I1
(tg10
I00
S'-J{\x96]\x97U\xc0'
p1583
tp1584
bag1
(g2
(I0
tp1585
g4
tp1586
Rp1587
(I1
(tg10
I00
S'p[\xfc\x15\xc3\xbaG\xc0'
p1588
tp1589
bag1
(g2
(I0
tp1590
g4
tp1591
Rp1592
(I1
(tg10
I00
S'\xd3\x13\xbb\xac+$F\xc0'
p1593
tp1594
bag1
(g2
(I0
tp1595
g4
tp1596
Rp1597
(I1
(tg10
I00
S'4\x87p\x98\xba\xbcE\xc0'
p1598
tp1599
bag1
(g2
(I0
tp1600
g4
tp1601
Rp1602
(I1
(tg10
I00
S'<\xacD\xcc\x17\x01L\xc0'
p1603
tp1604
bag1
(g2
(I0
tp1605
g4
tp1606
Rp1607
(I1
(tg10
I00
S'\xfa\xdeB \x11\x835\xc0'
p1608
tp1609
bag1
(g2
(I0
tp1610
g4
tp1611
Rp1612
(I1
(tg10
I00
S'\x9e\x1cbV\xb8\xb7E\xc0'
p1613
tp1614
bag1
(g2
(I0
tp1615
g4
tp1616
Rp1617
(I1
(tg10
I00
S'Z(\x03P\x12[Q\xc0'
p1618
tp1619
bag1
(g2
(I0
tp1620
g4
tp1621
Rp1622
(I1
(tg10
I00
S'J\xab\xea\xbe\x19FE\xc0'
p1623
tp1624
bag1
(g2
(I0
tp1625
g4
tp1626
Rp1627
(I1
(tg10
I00
S'h\x0b\xf4S\xa5\x87:\xc0'
p1628
tp1629
bag1
(g2
(I0
tp1630
g4
tp1631
Rp1632
(I1
(tg10
I00
S'\x84\xbc\xa1|\xba*3\xc0'
p1633
tp1634
bag1
(g2
(I0
tp1635
g4
tp1636
Rp1637
(I1
(tg10
I00
S'\xca\xed\xc6|9\xd3M\xc0'
p1638
tp1639
bag1
(g2
(I0
tp1640
g4
tp1641
Rp1642
(I1
(tg10
I00
S'_A\x08x\xc0X0\xc0'
p1643
tp1644
bag1
(g2
(I0
tp1645
g4
tp1646
Rp1647
(I1
(tg10
I00
S':\x0f/S7\x00@\xc0'
p1648
tp1649
bag1
(g2
(I0
tp1650
g4
tp1651
Rp1652
(I1
(tg10
I00
S'}A@9\xaf\xff>\xc0'
p1653
tp1654
bag1
(g2
(I0
tp1655
g4
tp1656
Rp1657
(I1
(tg10
I00
S'?\xdb\x07mA\xf9R\xc0'
p1658
tp1659
bag1
(g2
(I0
tp1660
g4
tp1661
Rp1662
(I1
(tg10
I00
S'\xea\xce\xf8\n\xd1)C\xc0'
p1663
tp1664
bag1
(g2
(I0
tp1665
g4
tp1666
Rp1667
(I1
(tg10
I00
S'&AB\xfd\xcbs=\xc0'
p1668
tp1669
bag1
(g2
(I0
tp1670
g4
tp1671
Rp1672
(I1
(tg10
I00
S'\x8f[]$\xdf\xfcJ\xc0'
p1673
tp1674
bag1
(g2
(I0
tp1675
g4
tp1676
Rp1677
(I1
(tg10
I00
S'\xb5\x8a\xdc\x18\x19\xadW\xc0'
p1678
tp1679
bag1
(g2
(I0
tp1680
g4
tp1681
Rp1682
(I1
(tg10
I00
S'\x83f\xb6\x9c\xe8\xfeL\xc0'
p1683
tp1684
bag1
(g2
(I0
tp1685
g4
tp1686
Rp1687
(I1
(tg10
I00
S'8!\xca\x10I\xbeY\xc0'
p1688
tp1689
bag1
(g2
(I0
tp1690
g4
tp1691
Rp1692
(I1
(tg10
I00
S'\x85\x8a\xd6\xa6\x94\x91&\xc0'
p1693
tp1694
ba.